; Listing generated by Microsoft (R) Optimizing Compiler Version 19.33.31629.0 

include listing.inc

INCLUDELIB OLDNAMES

PUBLIC	??_C@_05COLMCDPH@Hello@				; `string'
PUBLIC	??_C@_0CC@DDFJGIGO@Common?5subexpression?5eliminatio@ ; `string'
PUBLIC	??_C@_0CA@EAKPGJJD@This?5line?5should?5not?5be?5printed@ ; `string'
PUBLIC	??_C@_03OFAPEBGM@?$CFs?6@			; `string'
PUBLIC	??_C@_02DPKJAMEF@?$CFd@				; `string'
EXTRN	__imp___stdio_common_vfprintf:PROC
EXTRN	__imp___acrt_iob_func:PROC
EXTRN	__report_rangecheckfailure:PROC
EXTRN	__security_check_cookie:PROC
COMM	j:DWORD
COMM	k3:DWORD
COMM	i4:DWORD
COMM	i:DWORD
COMM	j5:DWORD
COMM	k:DWORD
COMM	ivector4:WORD:06H
COMM	i2:DWORD
COMM	ivector5:DWORD:064H
COMM	h3:DWORD
COMM	ivector:DWORD:03H
COMM	i3:DWORD
COMM	i5:DWORD
COMM	ivector2:BYTE:03H
COMM	k5:DWORD
COMM	j4:DWORD
_DATA	ENDS
;	COMDAT ??_C@_02DPKJAMEF@?$CFd@
CONST	SEGMENT
??_C@_02DPKJAMEF@?$CFd@ DB '%d', 00H			; `string'
CONST	ENDS
;	COMDAT ??_C@_03OFAPEBGM@?$CFs?6@
CONST	SEGMENT
??_C@_03OFAPEBGM@?$CFs?6@ DB '%s', 0aH, 00H		; `string'
CONST	ENDS
;	COMDAT ??_C@_0CA@EAKPGJJD@This?5line?5should?5not?5be?5printed@
CONST	SEGMENT
??_C@_0CA@EAKPGJJD@This?5line?5should?5not?5be?5printed@ DB 'This line sh'
	DB	'ould not be printed', 00H			; `string'
CONST	ENDS
;	COMDAT ??_C@_0CC@DDFJGIGO@Common?5subexpression?5eliminatio@
CONST	SEGMENT
??_C@_0CC@DDFJGIGO@Common?5subexpression?5eliminatio@ DB 'Common subexpre'
	DB	'ssion elimination', 0aH, 00H		; `string'
CONST	ENDS
;	COMDAT ??_C@_05COLMCDPH@Hello@
CONST	SEGMENT
??_C@_05COLMCDPH@Hello@ DB 'Hello', 00H			; `string'
__529D0EAA_concurrencysal@h DB 01H
__7EC34687_sal@h DB 01H
__35A2D2DF_vadefs@h DB 01H
__5F022EB5_vcruntime@h DB 01H
__6569C2CA_corecrt@h DB 01H
__A2143F22_corecrt_stdio_config@h DB 01H
__829E1958_corecrt_wstdio@h DB 01H
__6DFAE8B8_stdio@h DB 01H
__CDDAF8CA_errno@h DB 01H
__74AC4223_vcruntime_string@h DB 01H
__1FEB9909_corecrt_memcpy_s@h DB 01H
__A751F051_corecrt_memory@h DB 01H
__9200769A_corecrt_wstring@h DB 01H
__32E5F013_string@h DB 01H
__C1096819_OPTBENCH (1)@c DB 01H
msvcjmc	ENDS
PUBLIC	jump_compression
PUBLIC	loop_unrolling
PUBLIC	loop_jamming
PUBLIC	unnecessary_loop
PUBLIC	dead_code
PUBLIC	main
PUBLIC	printf
PUBLIC	_vfprintf_l
PUBLIC	__local_stdio_printf_options
PUBLIC	__JustMyCode_Default
EXTRN	__CheckForDebuggerJustMyCode:PROC
EXTRN	__ImageBase:BYTE
EXTRN	_fltused:DWORD
COMM	?_OptionsStorage@?1??__local_stdio_printf_options@@9@9:QWORD							; `__local_stdio_printf_options'::`2'::_OptionsStorage
_DATA	ENDS
;	COMDAT pdata
pdata	SEGMENT
$pdata$jump_compression DD imagerel $LN6
	DD	imagerel $LN6+35
	DD	imagerel $unwind$jump_compression
pdata	ENDS
;	COMDAT pdata
pdata	SEGMENT
$pdata$loop_unrolling DD imagerel $LN14
	DD	imagerel $LN14+92
	DD	imagerel $unwind$loop_unrolling
pdata	ENDS
;	COMDAT pdata
pdata	SEGMENT
$pdata$loop_jamming DD imagerel $LN18
	DD	imagerel $LN18+125
	DD	imagerel $unwind$loop_jamming
pdata	ENDS
;	COMDAT pdata
pdata	SEGMENT
$pdata$unnecessary_loop DD imagerel $LN11
	DD	imagerel $LN11+50
	DD	imagerel $unwind$unnecessary_loop
pdata	ENDS
;	COMDAT pdata
pdata	SEGMENT
$pdata$main DD	imagerel $LN46
	DD	imagerel $LN46+450
	DD	imagerel $unwind$main
pdata	ENDS
;	COMDAT pdata
pdata	SEGMENT
$pdata$printf DD imagerel $LN6
	DD	imagerel $LN6+99
	DD	imagerel $unwind$printf
pdata	ENDS
;	COMDAT pdata
pdata	SEGMENT
$pdata$_vfprintf_l DD imagerel $LN4
	DD	imagerel $LN4+80
	DD	imagerel $unwind$_vfprintf_l
pdata	ENDS
;	COMDAT pdata
pdata	SEGMENT
$pdata$__local_stdio_printf_options DD imagerel $LN4
	DD	imagerel $LN4+28
	DD	imagerel $unwind$__local_stdio_printf_options
pdata	ENDS
;	COMDAT xdata
xdata	SEGMENT
$unwind$__local_stdio_printf_options DD 010401H
	DD	04204H
xdata	ENDS
;	COMDAT xdata
xdata	SEGMENT
$unwind$_vfprintf_l DD 060f01H
	DD	09640fH
	DD	08340fH
	DD	0700b520fH
xdata	ENDS
;	COMDAT xdata
xdata	SEGMENT
$unwind$printf DD 041b01H
	DD	07017521bH
	DD	030156016H
xdata	ENDS
;	COMDAT xdata
xdata	SEGMENT
$unwind$main DD	020601H
	DD	030025206H
xdata	ENDS
;	COMDAT xdata
xdata	SEGMENT
$unwind$unnecessary_loop DD 010401H
	DD	04204H
xdata	ENDS
;	COMDAT xdata
xdata	SEGMENT
$unwind$loop_jamming DD 010401H
	DD	04204H
xdata	ENDS
;	COMDAT xdata
xdata	SEGMENT
$unwind$loop_unrolling DD 010401H
	DD	04204H
xdata	ENDS
;	COMDAT xdata
xdata	SEGMENT
$unwind$jump_compression DD 010401H
	DD	04204H
xdata	ENDS
; Function compile flags: /Odt
;	COMDAT __JustMyCode_Default
_TEXT	SEGMENT
__JustMyCode_Default PROC				; COMDAT
  00000	c2 00 00	 ret	 0
__JustMyCode_Default ENDP
_TEXT	ENDS
; Function compile flags: /Ogtp
; File C:\Program Files (x86)\Windows Kits\10\Include\10.0.19041.0\ucrt\corecrt_stdio_config.h
;	COMDAT __local_stdio_printf_options
_TEXT	SEGMENT
__local_stdio_printf_options PROC			; COMDAT

; 90   :     {

$LN4:
  00000	48 83 ec 28	 sub	 rsp, 40			; 00000028H
  00004	48 8d 0d 00 00
	00 00		 lea	 rcx, OFFSET FLAT:__A2143F22_corecrt_stdio_config@h
  0000b	e8 00 00 00 00	 call	 __CheckForDebuggerJustMyCode
  00010	48 8d 05 00 00
	00 00		 lea	 rax, OFFSET FLAT:?_OptionsStorage@?1??__local_stdio_printf_options@@9@9 ; `__local_stdio_printf_options'::`2'::_OptionsStorage

; 91   :         static unsigned __int64 _OptionsStorage;
; 92   :         return &_OptionsStorage;
; 93   :     }

  00017	48 83 c4 28	 add	 rsp, 40			; 00000028H
  0001b	c3		 ret	 0
__local_stdio_printf_options ENDP
_TEXT	ENDS
; Function compile flags: /Ogtp
; File C:\Program Files (x86)\Windows Kits\10\Include\10.0.19041.0\ucrt\stdio.h
;	COMDAT _vfprintf_l
_TEXT	SEGMENT
_Stream$ = 64
_Format$ = 72
_Locale$dead$ = 80
_ArgList$ = 88
_vfprintf_l PROC					; COMDAT

; 644  :     {

$LN4:
  00000	48 89 5c 24 08	 mov	 QWORD PTR [rsp+8], rbx
  00005	48 89 74 24 10	 mov	 QWORD PTR [rsp+16], rsi
  0000a	57		 push	 rdi
  0000b	48 83 ec 30	 sub	 rsp, 48			; 00000030H
  0000f	48 8b f1	 mov	 rsi, rcx
  00012	49 8b d9	 mov	 rbx, r9
  00015	48 8d 0d 00 00
	00 00		 lea	 rcx, OFFSET FLAT:__6DFAE8B8_stdio@h
  0001c	48 8b fa	 mov	 rdi, rdx
  0001f	e8 00 00 00 00	 call	 __CheckForDebuggerJustMyCode
  00024	e8 00 00 00 00	 call	 __local_stdio_printf_options
  00029	45 33 c9	 xor	 r9d, r9d
  0002c	48 89 5c 24 20	 mov	 QWORD PTR [rsp+32], rbx
  00031	4c 8b c7	 mov	 r8, rdi
  00034	48 8b d6	 mov	 rdx, rsi
  00037	48 8b 08	 mov	 rcx, QWORD PTR [rax]
  0003a	ff 15 00 00 00
	00		 call	 QWORD PTR __imp___stdio_common_vfprintf
  00040	48 8b 5c 24 40	 mov	 rbx, QWORD PTR [rsp+64]
  00045	48 8b 74 24 48	 mov	 rsi, QWORD PTR [rsp+72]

; 645  :         return __stdio_common_vfprintf(_CRT_INTERNAL_LOCAL_PRINTF_OPTIONS, _Stream, _Format, _Locale, _ArgList);
; 646  :     }

  0004a	48 83 c4 30	 add	 rsp, 48			; 00000030H
  0004e	5f		 pop	 rdi
  0004f	c3		 ret	 0
_vfprintf_l ENDP
_TEXT	ENDS
; Function compile flags: /Ogtp
; File C:\Program Files (x86)\Windows Kits\10\Include\10.0.19041.0\ucrt\stdio.h
;	COMDAT printf
_TEXT	SEGMENT
_Format$ = 80
printf	PROC						; COMDAT

; 956  :     {

$LN6:
  00000	48 89 4c 24 08	 mov	 QWORD PTR [rsp+8], rcx
  00005	48 89 54 24 10	 mov	 QWORD PTR [rsp+16], rdx
  0000a	4c 89 44 24 18	 mov	 QWORD PTR [rsp+24], r8
  0000f	4c 89 4c 24 20	 mov	 QWORD PTR [rsp+32], r9
  00014	53		 push	 rbx
  00015	56		 push	 rsi
  00016	57		 push	 rdi
  00017	48 83 ec 30	 sub	 rsp, 48			; 00000030H
  0001b	48 8d 0d 00 00
	00 00		 lea	 rcx, OFFSET FLAT:__6DFAE8B8_stdio@h
  00022	e8 00 00 00 00	 call	 __CheckForDebuggerJustMyCode
  00027	48 8b 7c 24 50	 mov	 rdi, QWORD PTR _Format$[rsp]
  0002c	48 8d 74 24 58	 lea	 rsi, QWORD PTR _Format$[rsp+8]
  00031	b9 01 00 00 00	 mov	 ecx, 1
  00036	ff 15 00 00 00
	00		 call	 QWORD PTR __imp___acrt_iob_func
  0003c	48 8b d8	 mov	 rbx, rax

; 645  :         return __stdio_common_vfprintf(_CRT_INTERNAL_LOCAL_PRINTF_OPTIONS, _Stream, _Format, _Locale, _ArgList);

  0003f	e8 00 00 00 00	 call	 __local_stdio_printf_options
  00044	45 33 c9	 xor	 r9d, r9d
  00047	48 89 74 24 20	 mov	 QWORD PTR [rsp+32], rsi
  0004c	4c 8b c7	 mov	 r8, rdi
  0004f	48 8b d3	 mov	 rdx, rbx
  00052	48 8b 08	 mov	 rcx, QWORD PTR [rax]
  00055	ff 15 00 00 00
	00		 call	 QWORD PTR __imp___stdio_common_vfprintf

; 957  :         int _Result;
; 958  :         va_list _ArgList;
; 959  :         __crt_va_start(_ArgList, _Format);
; 960  :         _Result = _vfprintf_l(stdout, _Format, NULL, _ArgList);
; 961  :         __crt_va_end(_ArgList);
; 962  :         return _Result;
; 963  :     }

  0005b	48 83 c4 30	 add	 rsp, 48			; 00000030H
  0005f	5f		 pop	 rdi
  00060	5e		 pop	 rsi
  00061	5b		 pop	 rbx
  00062	c3		 ret	 0
printf	ENDP
_TEXT	ENDS
; Function compile flags: /Ogtp
; File C:\Users\ ‡ËÌ‡\Downloads\OPTBENCH (1).c
;	COMDAT main
_TEXT	SEGMENT
argc$ = 64
argv$ = 72
main	PROC						; COMDAT

; 53   :          {

$LN46:
  00000	40 53		 push	 rbx
  00002	48 83 ec 30	 sub	 rsp, 48			; 00000030H
  00006	48 8d 0d 00 00
	00 00		 lea	 rcx, OFFSET FLAT:__C1096819_OPTBENCH (1)@c
  0000d	e8 00 00 00 00	 call	 __CheckForDebuggerJustMyCode
  00012	33 c9		 xor	 ecx, ecx
  00014	48 8d 1d 00 00
	00 00		 lea	 rbx, OFFSET FLAT:__ImageBase
  0001b	0f 1f 44 00 00	 npad	 5
$LL4@main:

; 54   : 	   /* ‚îÄ‚îÄ‚îÄ‚îÄ‚îÄ‚îÄ‚îÄ‚îÄ‚îÄ‚îÄ‚îÄ‚îÄ‚îÄ‚îÄ‚îÄ‚îÄ‚îÄ‚îÄ‚îÄ‚îÄ‚îÄ‚îÄ‚îÄ‚îÄ‚îÄ‚îÄ‚îÄ‚îÄ *
; 55   :             ‚îÇ –û—Ç–∫–∞–∑ –æ—Ç —Ü–∏–∫–ª–æ–≤ ‚îÇ
; 56   :             *‚îÄ‚îÄ‚îÄ‚îÄ‚îÄ‚îÄ‚îÄ‚îÄ‚îÄ‚îÄ‚îÄ‚îÄ‚îÄ‚îÄ‚îÄ‚îÄ‚îÄ‚îÄ‚îÄ‚îÄ‚îÄ‚îÄ‚îÄ‚îÄ‚îÄ‚îÄ‚îÄ‚îÄ‚îÄ‚îÄ*/
; 57   : 			 for(i = 0; i < 3 ; i++) ivector[ i ] = 1;

  00020	48 63 c1	 movsxd	 rax, ecx
  00023	ff c1		 inc	 ecx
  00025	c7 84 83 00 00
	00 00 01 00 00
	00		 mov	 DWORD PTR ivector[rbx+rax*4], 1
  00030	83 f9 03	 cmp	 ecx, 3
  00033	7c eb		 jl	 SHORT $LL4@main

; 58   : 
; 59   : 	   /* ‚îÄ‚îÄ‚îÄ‚îÄ‚îÄ‚îÄ‚îÄ‚îÄ‚îÄ‚îÄ‚îÄ‚îÄ‚îÄ‚îÄ‚îÄ‚îÄ‚îÄ‚îÄ‚îÄ‚îÄ‚îÄ‚îÄ‚îÄ‚îÄ‚îÄ‚îÄ‚îÄ‚îÄ *
; 60   :             ‚îÇ –ü–µ—Ä–µ–ø—Ä–∏—Å–≤–∞–∏–≤–∞–Ω–∏–µ‚îÇ
; 61   :             *‚îÄ‚îÄ‚îÄ‚îÄ‚îÄ‚îÄ‚îÄ‚îÄ‚îÄ‚îÄ‚îÄ‚îÄ‚îÄ‚îÄ‚îÄ‚îÄ‚îÄ‚îÄ‚îÄ‚îÄ‚îÄ‚îÄ‚îÄ‚îÄ‚îÄ‚îÄ‚îÄ‚îÄ‚îÄ‚îÄ*/
; 62   : 			 i2 = 5;
; 63   : 			 j4 = 6;
; 64   : 			 i2 = j4;
; 65   : 	   /* ‚îÄ‚îÄ‚îÄ‚îÄ‚îÄ‚îÄ‚îÄ‚îÄ‚îÄ‚îÄ‚îÄ‚îÄ‚îÄ‚îÄ‚îÄ‚îÄ‚îÄ‚îÄ‚îÄ‚îÄ‚îÄ‚îÄ‚îÄ‚îÄ‚îÄ‚îÄ‚îÄ‚îÄ *
; 66   :             ‚îÇ –†–∞–∑–º–Ω–æ–∂–µ–Ω–∏–µ –∫–æ–Ω—Å—Ç–∞–Ω—Ç –∏ –∫–æ–ø–∏–π ‚îÇ
; 67   :             *‚îÄ‚îÄ‚îÄ‚îÄ‚îÄ‚îÄ‚îÄ‚îÄ‚îÄ‚îÄ‚îÄ‚îÄ‚îÄ‚îÄ‚îÄ‚îÄ‚îÄ‚îÄ‚îÄ‚îÄ‚îÄ‚îÄ‚îÄ‚îÄ‚îÄ‚îÄ‚îÄ‚îÄ‚îÄ‚îÄ*/
; 68   : 
; 69   :             j4 = 2;
; 70   :             if( i2 < j4 && i4 < j4 ){
; 71   :                 i2 = 2;
; 72   : 				printf("Hello");
; 73   : 			}
; 74   : 
; 75   :             j4 = k5;

  00035	8b 05 00 00 00
	00		 mov	 eax, DWORD PTR k5
  0003b	89 0d 00 00 00
	00		 mov	 DWORD PTR i, ecx
  00041	c7 05 00 00 00
	00 06 00 00 00	 mov	 DWORD PTR i2, 6
  0004b	89 05 00 00 00
	00		 mov	 DWORD PTR j4, eax
  00051	83 f8 06	 cmp	 eax, 6

; 76   :             if( i2 < j4 && i4 < j4 ){

  00054	7e 24		 jle	 SHORT $LN18@main
  00056	39 05 00 00 00
	00		 cmp	 DWORD PTR i4, eax
  0005c	7d 1c		 jge	 SHORT $LN18@main

; 77   :                 i5 = 3;
; 78   : 				printf("Hello");

  0005e	48 8d 0d 00 00
	00 00		 lea	 rcx, OFFSET FLAT:??_C@_05COLMCDPH@Hello@
  00065	c7 05 00 00 00
	00 03 00 00 00	 mov	 DWORD PTR i5, 3
  0006f	e8 00 00 00 00	 call	 printf
  00074	8b 0d 00 00 00
	00		 mov	 ecx, DWORD PTR i
$LN18@main:

; 79   : 			}
; 80   : 
; 81   :            /* ‚îÄ‚îÄ‚îÄ‚îÄ‚îÄ‚îÄ‚îÄ‚îÄ‚îÄ‚îÄ‚îÄ‚îÄ‚îÄ‚îÄ‚îÄ‚îÄ‚îÄ‚îÄ‚îÄ‚îÄ‚îÄ‚îÄ‚îÄ‚îÄ‚îÄ‚îÄ‚îÄ‚îÄ‚îÄ‚îÄ‚îÄ‚îÄ‚îÄ‚îÄ‚îÄ‚îÄ‚îÄ‚îÄ‚îÄ‚îÄ‚îÄ‚îÄ *
; 82   : 	    ‚îÇ –°–≤–µ—Ä—Ç–∫–∞ –∫–æ–Ω—Å—Ç–∞–Ω—Ç, –∞—Ä–∏—Ñ–º–µ—Ç–∏—á–µ—Å–∫–∏–µ —Ç–æ–∂–¥–µ—Å—Ç–≤–∞ ‚îÇ
; 83   :             ‚îÇ –∏ –∏–∑–ª–∏—à–Ω–∏–µ –æ–ø–µ—Ä–∞—Ü–∏–∏ –∑–∞–≥—Ä—É–∑–∫–∏/—Å–æ—Ö—Ä–∞–Ω–µ–Ω–∏—è    ‚îÇ
; 84   :             * ‚îÄ‚îÄ‚îÄ‚îÄ‚îÄ‚îÄ‚îÄ‚îÄ‚îÄ‚îÄ‚îÄ‚îÄ‚îÄ‚îÄ‚îÄ‚îÄ‚îÄ‚îÄ‚îÄ‚îÄ‚îÄ‚îÄ‚îÄ‚îÄ‚îÄ‚îÄ‚îÄ‚îÄ‚îÄ‚îÄ‚îÄ‚îÄ‚îÄ‚îÄ‚îÄ‚îÄ‚îÄ‚îÄ‚îÄ‚îÄ‚îÄ‚îÄ */
; 85   : 
; 86   :             i3 = 1 + 2;
; 87   :             flt_1 = 2.4 + 6.3;
; 88   :             i2 = 5;
; 89   :             j2 = i + 0;
; 90   :             k2 = i / 1;
; 91   :             i4 = i * 1;

  0007a	89 0d 00 00 00
	00		 mov	 DWORD PTR i4, ecx
  00080	33 c9		 xor	 ecx, ecx
  00082	33 d2		 xor	 edx, edx
  00084	c7 05 00 00 00
	00 03 00 00 00	 mov	 DWORD PTR i3, 3
  0008e	c7 05 00 00 00
	00 05 00 00 00	 mov	 DWORD PTR i2, 5

; 92   :             i5 = i * 0;
; 93   : 
; 94   : 
; 95   : 
; 96   :             /* ‚îÄ‚îÄ‚îÄ‚îÄ‚îÄ‚îÄ‚îÄ‚îÄ‚îÄ‚îÄ‚îÄ‚îÄ‚îÄ‚îÄ‚îÄ‚îÄ‚îÄ‚îÄ‚îÄ‚îÄ *
; 97   :              ‚îÇ  –õ–∏—à–Ω–µ–µ –ø—Ä–∏—Å–≤–∞–∏–≤–∞–Ω–∏–µ ‚îÇ
; 98   :              * ‚îÄ‚îÄ‚îÄ‚îÄ‚îÄ‚îÄ‚îÄ‚îÄ‚îÄ‚îÄ‚îÄ‚îÄ‚îÄ‚îÄ‚îÄ‚îÄ‚îÄ‚îÄ‚îÄ‚îÄ */
; 99   :         
; 100  :             k3 = 1;

  00098	c7 05 00 00 00
	00 01 00 00 00	 mov	 DWORD PTR k3, 1
$LL7@main:

; 101  :             /* ‚îÄ‚îÄ‚îÄ‚îÄ‚îÄ‚îÄ‚îÄ‚îÄ‚îÄ‚îÄ‚îÄ‚îÄ‚îÄ‚îÄ‚îÄ‚îÄ‚îÄ‚îÄ *
; 102  :              ‚îÇ  –°–Ω–∏–∂–µ–Ω–∏–µ –º–æ—â–Ω–æ—Å—Ç–∏ ‚îÇ
; 103  :              * ‚îÄ‚îÄ‚îÄ‚îÄ‚îÄ‚îÄ‚îÄ‚îÄ‚îÄ‚îÄ‚îÄ‚îÄ‚îÄ‚îÄ‚îÄ‚îÄ‚îÄ‚îÄ */
; 104  : 
; 105  : 	    k2 = 4 * j5;
; 106  : 	    for( i = 0; i <= 5; i++ )
; 107  : 		ivector4[ i ] = i * 2;

  000a2	66 03 c9	 add	 cx, cx
  000a5	48 63 c2	 movsxd	 rax, edx
  000a8	66 89 8c 43 00
	00 00 00	 mov	 WORD PTR ivector4[rbx+rax*2], cx
  000b0	8d 4a 01	 lea	 ecx, DWORD PTR [rdx+1]
  000b3	8b d1		 mov	 edx, ecx
  000b5	83 f9 05	 cmp	 ecx, 5
  000b8	7e e8		 jle	 SHORT $LL7@main

; 108  : 
; 109  : 	    /* ‚îÄ‚îÄ‚îÄ‚îÄ‚îÄ‚îÄ‚îÄ‚îÄ‚îÄ‚îÄ‚îÄ‚îÄ‚îÄ *
; 110  :              ‚îÇ  –ü—Ä–æ—Å—Ç–æ–π —Ü–∏–∫–ª ‚îÇ
; 111  :              * ‚îÄ‚îÄ‚îÄ‚îÄ‚îÄ‚îÄ‚îÄ‚îÄ‚îÄ‚îÄ‚îÄ‚îÄ‚îÄ */
; 112  : 
; 113  :             j5 = 0;
; 114  :             k5 = 10000;

  000ba	45 33 c0	 xor	 r8d, r8d
  000bd	b9 10 27 00 00	 mov	 ecx, 10000		; 00002710H
  000c2	41 ba 2d 75 00
	00		 mov	 r10d, 29997		; 0000752dH
  000c8	45 8d 48 05	 lea	 r9d, QWORD PTR [r8+5]
  000cc	0f 1f 40 00	 npad	 4
$LL10@main:

; 118  :                 i5 = (k5 * 3) / (j5 * constant5);

  000d0	41 8b c2	 mov	 eax, r10d
  000d3	ff c9		 dec	 ecx
  000d5	99		 cdq
  000d6	41 ff c0	 inc	 r8d
  000d9	41 f7 f9	 idiv	 r9d
  000dc	41 83 ea 03	 sub	 r10d, 3
  000e0	41 83 c1 05	 add	 r9d, 5
  000e4	89 05 00 00 00
	00		 mov	 DWORD PTR i5, eax
  000ea	44 8b d8	 mov	 r11d, eax
  000ed	85 c9		 test	 ecx, ecx

; 119  :                } while ( k5 > 0 );

  000ef	7f df		 jg	 SHORT $LL10@main

; 115  :             do {
; 116  :                 k5 = k5 - 1;
; 117  :                 j5 = j5 + 1;

  000f1	89 0d 00 00 00
	00		 mov	 DWORD PTR k5, ecx
  000f7	33 c9		 xor	 ecx, ecx
  000f9	33 d2		 xor	 edx, edx
  000fb	44 89 05 00 00
	00 00		 mov	 DWORD PTR j5, r8d
$LL13@main:

; 120  : 
; 121  :             /* ‚îÄ‚îÄ‚îÄ‚îÄ‚îÄ‚îÄ‚îÄ‚îÄ‚îÄ‚îÄ‚îÄ‚îÄ‚îÄ‚îÄ‚îÄ‚îÄ‚îÄ‚îÄ‚îÄ‚îÄ‚îÄ‚îÄ‚îÄ‚îÄ‚îÄ‚îÄ‚îÄ‚îÄ‚îÄ‚îÄ‚îÄ‚îÄ‚îÄ‚îÄ‚îÄ‚îÄ‚îÄ‚îÄ *
; 122  : 	     ‚îÇ  –£–ø—Ä–∞–≤–ª–µ–Ω–∏–µ –ø–µ—Ä–µ–º–µ–Ω–Ω–æ–π –∏–Ω–¥—É–∫—Ü–∏–∏ —Ü–∏–∫–ª–∞  ‚îÇ
; 123  :              * ‚îÄ‚îÄ‚îÄ‚îÄ‚îÄ‚îÄ‚îÄ‚îÄ‚îÄ‚îÄ‚îÄ‚îÄ‚îÄ‚îÄ‚îÄ‚îÄ‚îÄ‚îÄ‚îÄ‚îÄ‚îÄ‚îÄ‚îÄ‚îÄ‚îÄ‚îÄ‚îÄ‚îÄ‚îÄ‚îÄ‚îÄ‚îÄ‚îÄ‚îÄ‚îÄ‚îÄ‚îÄ‚îÄ */
; 124  :             for( i = 0; i < 100; i++ )
; 125  :                 ivector5[ i * 2 + 3 ] = 5;

  00102	48 63 c2	 movsxd	 rax, edx
  00105	ff c1		 inc	 ecx
  00107	83 c2 02	 add	 edx, 2
  0010a	c7 84 83 0c 00
	00 00 05 00 00
	00		 mov	 DWORD PTR ivector5[rbx+rax*4+12], 5
  00115	83 f9 64	 cmp	 ecx, 100		; 00000064H
  00118	7c e8		 jl	 SHORT $LL13@main

; 126  : 
; 127  :             /* ‚îÄ‚îÄ‚îÄ‚îÄ‚îÄ‚îÄ‚îÄ‚îÄ‚îÄ‚îÄ‚îÄ‚îÄ‚îÄ‚îÄ‚îÄ‚îÄ‚îÄ‚îÄ‚îÄ‚îÄ‚îÄ‚îÄ‚îÄ *
; 128  :              ‚îÇ  –ì–ª—É–±–æ–∫–∏–µ –ø–æ–¥–≤—ã—Ä–∞–∂–µ–Ω–∏—è  ‚îÇ
; 129  :              * ‚îÄ‚îÄ‚îÄ‚îÄ‚îÄ‚îÄ‚îÄ‚îÄ‚îÄ‚îÄ‚îÄ‚îÄ‚îÄ‚îÄ‚îÄ‚îÄ‚îÄ‚îÄ‚îÄ‚îÄ‚îÄ‚îÄ‚îÄ */
; 130  : 
; 131  :             if( i < 10 )
; 132  :                 j5 = i5 + i2;
; 133  :             else
; 134  :                 k5 = i5 + i2;

  0011a	41 8d 43 05	 lea	 eax, DWORD PTR [r11+5]
  0011e	89 0d 00 00 00
	00		 mov	 DWORD PTR i, ecx
  00124	89 05 00 00 00
	00		 mov	 DWORD PTR k5, eax

; 135  : 
; 136  :             /* ‚îÄ‚îÄ‚îÄ‚îÄ‚îÄ‚îÄ‚îÄ‚îÄ‚îÄ‚îÄ‚îÄ‚îÄ‚îÄ‚îÄ‚îÄ‚îÄ‚îÄ‚îÄ‚îÄ‚îÄ‚îÄ‚îÄ‚îÄ‚îÄ‚îÄ‚îÄ‚îÄ‚îÄ‚îÄ‚îÄ‚îÄ‚îÄ‚îÄ‚îÄ‚îÄ‚îÄ‚îÄ‚îÄ‚îÄ‚îÄ‚îÄ‚îÄ‚îÄ‚îÄ‚îÄ‚îÄ‚îÄ‚îÄ *
; 137  :              ‚îÇ  –ü—Ä–æ–≤–µ—Ä–∫–∞ —Ç–æ–≥–æ, –∫–∞–∫ –∫–æ–º–ø–∏–ª—è—Ç–æ—Ä –≥–µ–Ω–µ—Ä–∏—Ä—É–µ—Ç –∞–¥—Ä–µ—Å  ‚îÇ
; 138  :              ‚îÇ  –ø–µ—Ä–µ–º–µ–Ω–Ω–æ–π —Å –∫–æ–Ω—Å—Ç–∞–Ω—Ç–Ω—ã–º –∏–Ω–¥–µ–∫—Å–æ–º, —Ä–∞–∑–º–Ω–æ–∂–∞–µ—Ç   ‚îÇ
; 139  :              ‚îÇ  –∫–æ–ø–∏–∏ –∏ —Ä–µ–≥–∏—Å—Ç—Ä—ã                                ‚îÇ
; 140  :              * ‚îÄ‚îÄ‚îÄ‚îÄ‚îÄ‚îÄ‚îÄ‚îÄ‚îÄ‚îÄ‚îÄ‚îÄ‚îÄ‚îÄ‚îÄ‚îÄ‚îÄ‚îÄ‚îÄ‚îÄ‚îÄ‚îÄ‚îÄ‚îÄ‚îÄ‚îÄ‚îÄ‚îÄ‚îÄ‚îÄ‚îÄ‚îÄ‚îÄ‚îÄ‚îÄ‚îÄ‚îÄ‚îÄ‚îÄ‚îÄ‚îÄ‚îÄ‚îÄ‚îÄ‚îÄ‚îÄ‚îÄ‚îÄ */
; 141  : 
; 142  :             ivector[ 0 ] = 1;  /* –≥–µ–Ω–µ—Ä–∞—Ü–∏—è –∫–æ–Ω—Å—Ç–∞–Ω—Ç–Ω–æ–≥–æ –∞–¥—Ä–µ—Å–∞ */
; 143  :             ivector[ i2 ] = 2; /* –∑–Ω–∞—á–µ–Ω–∏–µ i2 –¥–æ–ª–∂–Ω–æ –±—ã—Ç—å —Å–∫–æ–ø–∏—Ä–æ–≤–∞–Ω–æ*/
; 144  :             ivector[ i2 ] = 2; /* –∫–æ–ø–∏—Ä–æ–≤–∞–Ω–∏–µ —Ä–µ–≥–∏—Å—Ç—Ä–æ–≤ */
; 145  :             ivector[ 2 ] = 3;  /* –≥–µ–Ω–∞—Ä–∞—Ü–∏—è –∫–æ–Ω—Å—Ç–∞–Ω—Ç–Ω–æ–≥–æ –∞–¥—Ä–µ—Å–∞ */
; 146  : 
; 147  : 
; 148  : 	    /* ‚îÄ‚îÄ‚îÄ‚îÄ‚îÄ‚îÄ‚îÄ‚îÄ‚îÄ‚îÄ‚îÄ‚îÄ‚îÄ‚îÄ‚îÄ‚îÄ‚îÄ‚îÄ‚îÄ‚îÄ‚îÄ‚îÄ‚îÄ‚îÄ‚îÄ‚îÄ‚îÄ‚îÄ‚îÄ *
; 149  :              ‚îÇ  –£–¥–∞–ª–µ–Ω–∏–µ –æ–±—â–∏—Ö –ø–æ–¥–≤—ã—Ä–∞–∂–µ–Ω–∏–π  ‚îÇ
; 150  :              * ‚îÄ‚îÄ‚îÄ‚îÄ‚îÄ‚îÄ‚îÄ‚îÄ‚îÄ‚îÄ‚îÄ‚îÄ‚îÄ‚îÄ‚îÄ‚îÄ‚îÄ‚îÄ‚îÄ‚îÄ‚îÄ‚îÄ‚îÄ‚îÄ‚îÄ‚îÄ‚îÄ‚îÄ‚îÄ */
; 151  : 
; 152  :             if(( h3 + k3 ) < 0 || ( h3 + k3 ) > 5 )

  0012a	8b 05 00 00 00
	00		 mov	 eax, DWORD PTR h3
  00130	ff c0		 inc	 eax
  00132	c7 05 00 00 00
	00 01 00 00 00	 mov	 DWORD PTR ivector, 1
  0013c	c7 05 14 00 00
	00 02 00 00 00	 mov	 DWORD PTR ivector+20, 2
  00146	c7 05 08 00 00
	00 03 00 00 00	 mov	 DWORD PTR ivector+8, 3
  00150	83 f8 05	 cmp	 eax, 5
  00153	76 0c		 jbe	 SHORT $LN22@main

; 153  :                 printf("Common subexpression elimination\n");

  00155	48 8d 0d 00 00
	00 00		 lea	 rcx, OFFSET FLAT:??_C@_0CC@DDFJGIGO@Common?5subexpression?5eliminatio@
  0015c	e8 00 00 00 00	 call	 printf
$LN22@main:

; 154  :             else {
; 155  :                 m3 = ( h3 + k3 ) / i3;
; 156  : 		g3 = i3 + (h3 + k3);
; 157  :             }
; 158  : 
; 159  :             /* ‚îÄ‚îÄ‚îÄ‚îÄ‚îÄ‚îÄ‚îÄ‚îÄ‚îÄ‚îÄ‚îÄ‚îÄ‚îÄ‚îÄ‚îÄ‚îÄ‚îÄ‚îÄ‚îÄ‚îÄ‚îÄ‚îÄ‚îÄ‚îÄ‚îÄ‚îÄ‚îÄ‚îÄ‚îÄ‚îÄ‚îÄ‚îÄ‚îÄ‚îÄ‚îÄ‚îÄ‚îÄ‚îÄ *
; 160  :              ‚îÇ  –í—ã–Ω–µ—Å–µ–Ω–∏–µ –∏–Ω–≤–∞—Ä–∏–∞–Ω—Ç–Ω–æ–≥–æ –∫–æ–¥–∞          ‚îÇ
; 161  :              ‚îÇ  (j * k) –º–æ–∂–µ—Ç –±—ã—Ç—å –≤—ã–Ω–µ—Å–µ–Ω–æ –∏–∑ —Ü–∏–∫–ª–∞  ‚îÇ
; 162  : 	     * ‚îÄ‚îÄ‚îÄ‚îÄ‚îÄ‚îÄ‚îÄ‚îÄ‚îÄ‚îÄ‚îÄ‚îÄ‚îÄ‚îÄ‚îÄ‚îÄ‚îÄ‚îÄ‚îÄ‚îÄ‚îÄ‚îÄ‚îÄ‚îÄ‚îÄ‚îÄ‚îÄ‚îÄ‚îÄ‚îÄ‚îÄ‚îÄ‚îÄ‚îÄ‚îÄ‚îÄ‚îÄ‚îÄ */
; 163  : 
; 164  :             for( i4 = 0; i4 <= max_vector; i4++){

  00161	c7 05 00 00 00
	00 00 00 00 00	 mov	 DWORD PTR i4, 0
  0016b	0f 1f 44 00 00	 npad	 5
$LL16@main:

; 165  : 				printf("Hello");

  00170	48 8d 0d 00 00
	00 00		 lea	 rcx, OFFSET FLAT:??_C@_05COLMCDPH@Hello@
  00177	e8 00 00 00 00	 call	 printf

; 166  :                 ivector2[ i4 ] = j * k;

  0017c	48 63 15 00 00
	00 00		 movsxd	 rdx, DWORD PTR i4
  00183	0f b6 05 00 00
	00 00		 movzx	 eax, BYTE PTR k
  0018a	0f b6 0d 00 00
	00 00		 movzx	 ecx, BYTE PTR j
  00191	0f af c8	 imul	 ecx, eax
  00194	88 8c 1a 00 00
	00 00		 mov	 BYTE PTR ivector2[rdx+rbx], cl
  0019b	ff c2		 inc	 edx
  0019d	89 15 00 00 00
	00		 mov	 DWORD PTR i4, edx
  001a3	83 fa 02	 cmp	 edx, 2
  001a6	7e c8		 jle	 SHORT $LL16@main

; 167  : 			}
; 168  : 
; 169  : 	    /* ‚îÄ‚îÄ‚îÄ‚îÄ‚îÄ‚îÄ‚îÄ‚îÄ‚îÄ‚îÄ‚îÄ‚îÄ‚îÄ‚îÄ‚îÄ‚îÄ‚îÄ‚îÄ‚îÄ‚îÄ‚îÄ‚îÄ‚îÄ‚îÄ‚îÄ‚îÄ‚îÄ‚îÄ‚îÄ *
; 170  : 	     ‚îÇ  –í—ã–∑–æ–≤ —Ñ—É–Ω–∫—Ü–∏–∏ —Å –∞—Ä–≥—É–º–µ–Ω—Ç–∞–º–∏  ‚îÇ
; 171  : 	     * ‚îÄ‚îÄ‚îÄ‚îÄ‚îÄ‚îÄ‚îÄ‚îÄ‚îÄ‚îÄ‚îÄ‚îÄ‚îÄ‚îÄ‚îÄ‚îÄ‚îÄ‚îÄ‚îÄ‚îÄ‚îÄ‚îÄ‚îÄ‚îÄ‚îÄ‚îÄ‚îÄ‚îÄ‚îÄ */
; 172  : 
; 173  : 	    dead_code( 1, "This line should not be printed" );

  001a8	e8 00 00 00 00	 call	 dead_code

; 174  : 
; 175  : 	    /* ‚îÄ‚îÄ‚îÄ‚îÄ‚îÄ‚îÄ‚îÄ‚îÄ‚îÄ‚îÄ‚îÄ‚îÄ‚îÄ‚îÄ‚îÄ‚îÄ‚îÄ‚îÄ‚îÄ‚îÄ‚îÄ‚îÄ‚îÄ‚îÄ‚îÄ‚îÄ‚îÄ‚îÄ‚îÄ‚îÄ *
; 176  :              ‚îÇ  –í—ã–∑–æ–≤ —Ñ—É–Ω–∫—Ü–∏–∏ –±–µ–∑ –∞—Ä–≥—É–º–µ–Ω—Ç–æ–≤  ‚îÇ
; 177  :              * ‚îÄ‚îÄ‚îÄ‚îÄ‚îÄ‚îÄ‚îÄ‚îÄ‚îÄ‚îÄ‚îÄ‚îÄ‚îÄ‚îÄ‚îÄ‚îÄ‚îÄ‚îÄ‚îÄ‚îÄ‚îÄ‚îÄ‚îÄ‚îÄ‚îÄ‚îÄ‚îÄ‚îÄ‚îÄ‚îÄ */
; 178  : 
; 179  :             unnecessary_loop();

  001ad	e8 00 00 00 00	 call	 unnecessary_loop

; 180  : 
; 181  : 	//------------------------------------------------------
; 182  : 	loop_jamming(7);

  001b2	e8 00 00 00 00	 call	 loop_jamming

; 183  : 	loop_unrolling(7);

  001b7	e8 00 00 00 00	 call	 loop_unrolling

; 184  : 	jump_compression(1, 2, 3, 4, 5);

  001bc	e8 00 00 00 00	 call	 jump_compression
  001c1	cc		 int	 3
$LN45@main:
main	ENDP
_TEXT	ENDS
; Function compile flags: /Ogtp
; File C:\Users\ ‡ËÌ‡\Downloads\OPTBENCH (1).c
;	COMDAT dead_code
_TEXT	SEGMENT
a$dead$ = 8
b$dead$ = 16
dead_code PROC						; COMDAT
  00000	48 8d 0d 00 00
	00 00		 lea	 rcx, OFFSET FLAT:__C1096819_OPTBENCH (1)@c
  00007	e9 00 00 00 00	 jmp	 __CheckForDebuggerJustMyCode
dead_code ENDP
_TEXT	ENDS
; Function compile flags: /Ogtp
; File C:\Users\ ‡ËÌ‡\Downloads\OPTBENCH (1).c
;	COMDAT unnecessary_loop
_TEXT	SEGMENT
unnecessary_loop PROC					; COMDAT

; 215  :             {

$LN11:
  00000	48 83 ec 28	 sub	 rsp, 40			; 00000028H
  00004	48 8d 0d 00 00
	00 00		 lea	 rcx, OFFSET FLAT:__C1096819_OPTBENCH (1)@c
  0000b	e8 00 00 00 00	 call	 __CheckForDebuggerJustMyCode
  00010	8b 0d 00 00 00
	00		 mov	 ecx, DWORD PTR j5
  00016	33 c0		 xor	 eax, eax
  00018	89 0d 00 00 00
	00		 mov	 DWORD PTR k5, ecx
  0001e	66 90		 npad	 2
$LL4@unnecessar:

; 216  :               int x;
; 217  : 
; 218  :               x = 0;
; 219  :               for( i = 0; i < 5; i++ )  /* –¶–∏–∫–ª –Ω–µ –¥–æ–ª–∂–µ–Ω

  00020	ff c0		 inc	 eax
  00022	83 f8 05	 cmp	 eax, 5
  00025	7c f9		 jl	 SHORT $LL4@unnecessar
  00027	89 05 00 00 00
	00		 mov	 DWORD PTR i, eax

; 220  :                                              –≥–µ–Ω–µ—Ä–∏—Ä–æ–≤–∞—Ç—å—Å—è*/
; 221  :                   k5 = x + j5;
; 222  :             } /* –ö–æ–Ω–µ—Ü unnecessary_loop */

  0002d	48 83 c4 28	 add	 rsp, 40			; 00000028H
  00031	c3		 ret	 0
unnecessary_loop ENDP
_TEXT	ENDS
; Function compile flags: /Ogtp
; File C:\Users\ ‡ËÌ‡\Downloads\OPTBENCH (1).c
;	COMDAT loop_jamming
_TEXT	SEGMENT
x$dead$ = 48
loop_jamming PROC					; COMDAT

; 233  :             {

$LN18:
  00000	48 83 ec 28	 sub	 rsp, 40			; 00000028H
  00004	48 8d 0d 00 00
	00 00		 lea	 rcx, OFFSET FLAT:__C1096819_OPTBENCH (1)@c
  0000b	e8 00 00 00 00	 call	 __CheckForDebuggerJustMyCode
  00010	44 8b 15 00 00
	00 00		 mov	 r10d, DWORD PTR j5
  00017	33 c0		 xor	 eax, eax
  00019	8b c8		 mov	 ecx, eax
  0001b	44 8b c8	 mov	 r9d, eax
  0001e	41 8b d2	 mov	 edx, r10d
  00021	0f 1f 40 00 66
	66 66 0f 1f 84
	00 00 00 00 00	 npad	 15
$LL4@loop_jammi:

; 234  :                 for( i = 0; i < 5; i++ )
; 235  :                     k5 = x + j5 * i;

  00030	45 8d 41 07	 lea	 r8d, DWORD PTR [r9+7]
  00034	ff c1		 inc	 ecx
  00036	44 8b ca	 mov	 r9d, edx
  00039	44 89 05 00 00
	00 00		 mov	 DWORD PTR k5, r8d
  00040	41 03 d2	 add	 edx, r10d
  00043	83 f9 05	 cmp	 ecx, 5
  00046	7c e8		 jl	 SHORT $LL4@loop_jammi
  00048	45 6b c0 07	 imul	 r8d, r8d, 7
  0004c	8b d0		 mov	 edx, eax
  0004e	41 8b c8	 mov	 ecx, r8d
  00051	0f 1f 40 00 66
	66 66 0f 1f 84
	00 00 00 00 00	 npad	 15
$LL7@loop_jammi:

; 237  :                     i5 = x * k5 * i;

  00060	89 15 00 00 00
	00		 mov	 DWORD PTR i5, edx
  00066	ff c0		 inc	 eax
  00068	8b d1		 mov	 edx, ecx
  0006a	41 03 c8	 add	 ecx, r8d
  0006d	83 f8 05	 cmp	 eax, 5
  00070	7c ee		 jl	 SHORT $LL7@loop_jammi

; 236  :                 for( i = 0; i < 5; i++ )

  00072	89 05 00 00 00
	00		 mov	 DWORD PTR i, eax

; 238  :             } /* –ö–æ–Ω–µ—Ü loop_jamming */

  00078	48 83 c4 28	 add	 rsp, 40			; 00000028H
  0007c	c3		 ret	 0
loop_jamming ENDP
_TEXT	ENDS
; Function compile flags: /Ogtp
; File C:\Users\ ‡ËÌ‡\Downloads\OPTBENCH (1).c
;	COMDAT loop_unrolling
_TEXT	SEGMENT
x$dead$ = 48
loop_unrolling PROC					; COMDAT

; 251  :             {

$LN14:
  00000	48 83 ec 28	 sub	 rsp, 40			; 00000028H
  00004	48 8d 0d 00 00
	00 00		 lea	 rcx, OFFSET FLAT:__C1096819_OPTBENCH (1)@c
  0000b	e8 00 00 00 00	 call	 __CheckForDebuggerJustMyCode
  00010	45 33 c0	 xor	 r8d, r8d
  00013	4c 8d 0d 00 00
	00 00		 lea	 r9, OFFSET FLAT:ivector4
  0001a	44 89 05 00 00
	00 00		 mov	 DWORD PTR i, r8d
  00021	41 8b c0	 mov	 eax, r8d
  00024	41 8b d0	 mov	 edx, r8d
  00027	66 0f 1f 84 00
	00 00 00 00	 npad	 9
$LL4@loop_unrol:

; 252  :                 for( i = 0; i < 6; i++ )
; 253  :                     ivector4[ i ] = 0;

  00030	48 63 c8	 movsxd	 rcx, eax
  00033	48 03 c9	 add	 rcx, rcx
  00036	48 83 f9 0c	 cmp	 rcx, 12
  0003a	73 1a		 jae	 SHORT $LN6@loop_unrol
  0003c	8d 42 01	 lea	 eax, DWORD PTR [rdx+1]
  0003f	66 46 89 04 09	 mov	 WORD PTR [rcx+r9], r8w
  00044	89 05 00 00 00
	00		 mov	 DWORD PTR i, eax
  0004a	8b d0		 mov	 edx, eax
  0004c	83 f8 06	 cmp	 eax, 6
  0004f	7c df		 jl	 SHORT $LL4@loop_unrol

; 254  : 	    } /* –ö–æ–Ω–µ—Ü loop_unrolling */

  00051	48 83 c4 28	 add	 rsp, 40			; 00000028H
  00055	c3		 ret	 0
$LN6@loop_unrol:

; 252  :                 for( i = 0; i < 6; i++ )
; 253  :                     ivector4[ i ] = 0;

  00056	e8 00 00 00 00	 call	 __report_rangecheckfailure
  0005b	cc		 int	 3
$LN12@loop_unrol:
loop_unrolling ENDP
_TEXT	ENDS
; Function compile flags: /Ogtp
; File C:\Users\ ‡ËÌ‡\Downloads\OPTBENCH (1).c
;	COMDAT jump_compression
_TEXT	SEGMENT
i$dead$ = 48
j$dead$ = 56
k$dead$ = 64
l$dead$ = 72
m$dead$ = 80
jump_compression PROC					; COMDAT

; 265  :            {

$LN6:
  00000	48 83 ec 28	 sub	 rsp, 40			; 00000028H
  00004	48 8d 0d 00 00
	00 00		 lea	 rcx, OFFSET FLAT:__C1096819_OPTBENCH (1)@c
  0000b	e8 00 00 00 00	 call	 __CheckForDebuggerJustMyCode
$beg_1$7:
$beg_2$8:
$beg_3$9:

; 266  :            int p;
; 267  :        beg_1:
; 268  :            p = 4;
; 269  :            goto beg_2;
; 270  :        beg_2:
; 271  :            goto beg_3;
; 272  :        beg_3:
; 273  :            printf("%d", p);

  00010	ba 04 00 00 00	 mov	 edx, 4
  00015	48 8d 0d 00 00
	00 00		 lea	 rcx, OFFSET FLAT:??_C@_02DPKJAMEF@?$CFd@
  0001c	e8 00 00 00 00	 call	 printf

; 274  :            goto beg_1;

  00021	eb ed		 jmp	 SHORT $beg_1$7
jump_compression ENDP
_TEXT	ENDS
END
