; Listing generated by Microsoft (R) Optimizing Compiler Version 19.33.31629.0 

include listing.inc

INCLUDELIB MSVCRTD
INCLUDELIB OLDNAMES

_DATA	SEGMENT
COMM	i:DWORD
COMM	j:DWORD
COMM	k:DWORD
COMM	l:DWORD
COMM	m:DWORD
COMM	i2:DWORD
COMM	j2:DWORD
COMM	k2:DWORD
COMM	g3:DWORD
COMM	h3:DWORD
COMM	i3:DWORD
COMM	k3:DWORD
COMM	m3:DWORD
COMM	i4:DWORD
COMM	j4:DWORD
COMM	i5:DWORD
COMM	j5:DWORD
COMM	k5:DWORD
COMM	flt_1:QWORD
COMM	flt_2:QWORD
COMM	flt_3:QWORD
COMM	flt_4:QWORD
COMM	flt_5:QWORD
COMM	flt_6:QWORD
COMM	ivector:DWORD:03H
COMM	ivector2:BYTE:03H
COMM	ivector4:WORD:06H
COMM	ivector5:DWORD:064H
_DATA	ENDS
msvcjmc	SEGMENT
__529D0EAA_concurrencysal@h DB 01H
__7EC34687_sal@h DB 01H
__35A2D2DF_vadefs@h DB 01H
__5F022EB5_vcruntime@h DB 01H
__6569C2CA_corecrt@h DB 01H
__A2143F22_corecrt_stdio_config@h DB 01H
__829E1958_corecrt_wstdio@h DB 01H
__6DFAE8B8_stdio@h DB 01H
__CDDAF8CA_errno@h DB 01H
__74AC4223_vcruntime_string@h DB 01H
__1FEB9909_corecrt_memcpy_s@h DB 01H
__A751F051_corecrt_memory@h DB 01H
__9200769A_corecrt_wstring@h DB 01H
__32E5F013_string@h DB 01H
__C1096819_OPTBENCH (1)@c DB 01H
msvcjmc	ENDS
PUBLIC	__local_stdio_printf_options
PUBLIC	_vfprintf_l
PUBLIC	printf
PUBLIC	dead_code
PUBLIC	unnecessary_loop
PUBLIC	loop_jamming
PUBLIC	loop_unrolling
PUBLIC	jump_compression
PUBLIC	main
PUBLIC	__JustMyCode_Default
PUBLIC	??_C@_03OFAPEBGM@?$CFs?6@			; `string'
PUBLIC	??_C@_05COLMCDPH@Hello@				; `string'
PUBLIC	??_C@_0CC@DDFJGIGO@Common?5subexpression?5eliminatio@ ; `string'
PUBLIC	??_C@_0CA@EAKPGJJD@This?5line?5should?5not?5be?5printed@ ; `string'
PUBLIC	__real@4021666666666666
EXTRN	__report_rangecheckfailure:PROC
EXTRN	__imp___acrt_iob_func:PROC
EXTRN	__imp___stdio_common_vfprintf:PROC
EXTRN	_RTC_CheckStackVars:PROC
EXTRN	_RTC_InitBase:PROC
EXTRN	_RTC_Shutdown:PROC
EXTRN	__CheckForDebuggerJustMyCode:PROC
EXTRN	__GSHandlerCheck:PROC
EXTRN	__security_check_cookie:PROC
EXTRN	__security_cookie:QWORD
EXTRN	_fltused:DWORD
_DATA	SEGMENT
COMM	?_OptionsStorage@?1??__local_stdio_printf_options@@9@9:QWORD							; `__local_stdio_printf_options'::`2'::_OptionsStorage
_DATA	ENDS
;	COMDAT pdata
pdata	SEGMENT
$pdata$__local_stdio_printf_options DD imagerel $LN3
	DD	imagerel $LN3+44
	DD	imagerel $unwind$__local_stdio_printf_options
pdata	ENDS
;	COMDAT pdata
pdata	SEGMENT
$pdata$_vfprintf_l DD imagerel $LN3
	DD	imagerel $LN3+103
	DD	imagerel $unwind$_vfprintf_l
pdata	ENDS
;	COMDAT pdata
pdata	SEGMENT
$pdata$printf DD imagerel $LN3
	DD	imagerel $LN3+191
	DD	imagerel $unwind$printf
pdata	ENDS
;	COMDAT pdata
pdata	SEGMENT
$pdata$dead_code DD imagerel $LN4
	DD	imagerel $LN4+79
	DD	imagerel $unwind$dead_code
pdata	ENDS
;	COMDAT pdata
pdata	SEGMENT
$pdata$unnecessary_loop DD imagerel $LN6
	DD	imagerel $LN6+100
	DD	imagerel $unwind$unnecessary_loop
pdata	ENDS
;	COMDAT pdata
pdata	SEGMENT
$pdata$loop_jamming DD imagerel $LN9
	DD	imagerel $LN9+169
	DD	imagerel $unwind$loop_jamming
pdata	ENDS
;	COMDAT pdata
pdata	SEGMENT
$pdata$loop_unrolling DD imagerel $LN8
	DD	imagerel $LN8+131
	DD	imagerel $unwind$loop_unrolling
pdata	ENDS
;	COMDAT pdata
pdata	SEGMENT
$pdata$jump_compression DD imagerel $LN11
	DD	imagerel $LN11+247
	DD	imagerel $unwind$jump_compression
pdata	ENDS
;	COMDAT pdata
pdata	SEGMENT
$pdata$main DD	imagerel $LN25
	DD	imagerel $LN25+990
	DD	imagerel $unwind$main
pdata	ENDS
;	COMDAT __real@4021666666666666
CONST	SEGMENT
__real@4021666666666666 DQ 04021666666666666r	; 8.7
CONST	ENDS
;	COMDAT rtc$TMZ
rtc$TMZ	SEGMENT
_RTC_Shutdown.rtc$TMZ DQ FLAT:_RTC_Shutdown
rtc$TMZ	ENDS
;	COMDAT rtc$IMZ
rtc$IMZ	SEGMENT
_RTC_InitBase.rtc$IMZ DQ FLAT:_RTC_InitBase
rtc$IMZ	ENDS
;	COMDAT ??_C@_0CA@EAKPGJJD@This?5line?5should?5not?5be?5printed@
CONST	SEGMENT
??_C@_0CA@EAKPGJJD@This?5line?5should?5not?5be?5printed@ DB 'This line sh'
	DB	'ould not be printed', 00H			; `string'
CONST	ENDS
;	COMDAT ??_C@_0CC@DDFJGIGO@Common?5subexpression?5eliminatio@
CONST	SEGMENT
??_C@_0CC@DDFJGIGO@Common?5subexpression?5eliminatio@ DB 'Common subexpre'
	DB	'ssion elimination', 0aH, 00H		; `string'
CONST	ENDS
;	COMDAT ??_C@_05COLMCDPH@Hello@
CONST	SEGMENT
??_C@_05COLMCDPH@Hello@ DB 'Hello', 00H			; `string'
CONST	ENDS
;	COMDAT ??_C@_03OFAPEBGM@?$CFs?6@
CONST	SEGMENT
??_C@_03OFAPEBGM@?$CFs?6@ DB '%s', 0aH, 00H		; `string'
CONST	ENDS
;	COMDAT xdata
xdata	SEGMENT
$unwind$main DD	035051701H
	DD	01123317H
	DD	0700b001fH
	DD	0500aH
xdata	ENDS
;	COMDAT xdata
xdata	SEGMENT
$unwind$jump_compression DD 025052001H
	DD	011b2320H
	DD	07014001dH
	DD	05013H
xdata	ENDS
;	COMDAT xdata
xdata	SEGMENT
$unwind$loop_unrolling DD 025051201H
	DD	010d2312H
	DD	070060021H
	DD	05005H
xdata	ENDS
;	COMDAT xdata
xdata	SEGMENT
$unwind$loop_jamming DD 025051201H
	DD	010d2312H
	DD	07006001dH
	DD	05005H
xdata	ENDS
;	COMDAT xdata
xdata	SEGMENT
$unwind$unnecessary_loop DD 025050f01H
	DD	010a230fH
	DD	070030021H
	DD	05002H
xdata	ENDS
;	COMDAT xdata
xdata	SEGMENT
$unwind$dead_code DD 025051701H
	DD	01122317H
	DD	0700b0021H
	DD	0500aH
xdata	ENDS
;	COMDAT voltbl
voltbl	SEGMENT
_volmd	DB	045H
	DB	0a6H
voltbl	ENDS
;	COMDAT xdata
xdata	SEGMENT
$unwind$printf DD 025054c19H
	DD	011d2322H
	DD	070160025H
	DD	05015H
	DD	imagerel __GSHandlerCheck
	DD	0118H
xdata	ENDS
;	COMDAT CONST
CONST	SEGMENT
printf$rtcName$0 DB 05fH
	DB	041H
	DB	072H
	DB	067H
	DB	04cH
	DB	069H
	DB	073H
	DB	074H
	DB	00H
	ORG $+7
printf$rtcVarDesc DD 048H
	DD	08H
	DQ	FLAT:printf$rtcName$0
	ORG $+48
printf$rtcFrameData DD 01H
	DD	00H
	DQ	FLAT:printf$rtcVarDesc
CONST	ENDS
;	COMDAT xdata
xdata	SEGMENT
$unwind$_vfprintf_l DD 035052201H
	DD	011d3322H
	DD	07016001fH
	DD	05015H
xdata	ENDS
;	COMDAT xdata
xdata	SEGMENT
$unwind$__local_stdio_printf_options DD 025050f01H
	DD	010a230fH
	DD	07003001dH
	DD	05002H
xdata	ENDS
; Function compile flags: /Odt
;	COMDAT __JustMyCode_Default
_TEXT	SEGMENT
__JustMyCode_Default PROC				; COMDAT
  00000	c2 00 00	 ret	 0
__JustMyCode_Default ENDP
_TEXT	ENDS
; Function compile flags: /Odtp /RTCsu /ZI
; File C:\Users\Карина\Downloads\OPTBENCH (1).c
;	COMDAT main
_TEXT	SEGMENT
argc$ = 224
argv$ = 232
main	PROC						; COMDAT

; 138  :          {

$LN25:
  00000	48 89 54 24 10	 mov	 QWORD PTR [rsp+16], rdx
  00005	89 4c 24 08	 mov	 DWORD PTR [rsp+8], ecx
  00009	55		 push	 rbp
  0000a	57		 push	 rdi
  0000b	48 81 ec f8 00
	00 00		 sub	 rsp, 248		; 000000f8H
  00012	48 8d 6c 24 30	 lea	 rbp, QWORD PTR [rsp+48]
  00017	48 8d 0d 00 00
	00 00		 lea	 rcx, OFFSET FLAT:__C1096819_OPTBENCH (1)@c
  0001e	e8 00 00 00 00	 call	 __CheckForDebuggerJustMyCode

; 139  : 	   /* в”Ђв”Ђв”Ђв”Ђв”Ђв”Ђв”Ђв”Ђв”Ђв”Ђв”Ђв”Ђв”Ђв”Ђв”Ђв”Ђв”Ђв”Ђв”Ђв”Ђв”Ђв”Ђв”Ђв”Ђв”Ђв”Ђв”Ђв”Ђ *
; 140  :             в”‚ РћС‚РєР°Р· РѕС‚ С†РёРєР»РѕРІ в”‚
; 141  :             *в”Ђв”Ђв”Ђв”Ђв”Ђв”Ђв”Ђв”Ђв”Ђв”Ђв”Ђв”Ђв”Ђв”Ђв”Ђв”Ђв”Ђв”Ђв”Ђв”Ђв”Ђв”Ђв”Ђв”Ђв”Ђв”Ђв”Ђв”Ђв”Ђв”Ђ*/
; 142  : 			 for(i = 0; i < 3 ; i++) ivector[ i ] = 1;

  00023	c7 05 00 00 00
	00 00 00 00 00	 mov	 DWORD PTR i, 0
  0002d	eb 0e		 jmp	 SHORT $LN4@main
$LN2@main:
  0002f	8b 05 00 00 00
	00		 mov	 eax, DWORD PTR i
  00035	ff c0		 inc	 eax
  00037	89 05 00 00 00
	00		 mov	 DWORD PTR i, eax
$LN4@main:
  0003d	83 3d 00 00 00
	00 03		 cmp	 DWORD PTR i, 3
  00044	7d 17		 jge	 SHORT $LN3@main
  00046	48 63 05 00 00
	00 00		 movsxd	 rax, DWORD PTR i
  0004d	48 8d 0d 00 00
	00 00		 lea	 rcx, OFFSET FLAT:ivector
  00054	c7 04 81 01 00
	00 00		 mov	 DWORD PTR [rcx+rax*4], 1
  0005b	eb d2		 jmp	 SHORT $LN2@main
$LN3@main:

; 143  : 
; 144  : 	   /* в”Ђв”Ђв”Ђв”Ђв”Ђв”Ђв”Ђв”Ђв”Ђв”Ђв”Ђв”Ђв”Ђв”Ђв”Ђв”Ђв”Ђв”Ђв”Ђв”Ђв”Ђв”Ђв”Ђв”Ђв”Ђв”Ђв”Ђв”Ђ *
; 145  :             в”‚ РџРµСЂРµРїСЂРёСЃРІР°РёРІР°РЅРёРµв”‚
; 146  :             *в”Ђв”Ђв”Ђв”Ђв”Ђв”Ђв”Ђв”Ђв”Ђв”Ђв”Ђв”Ђв”Ђв”Ђв”Ђв”Ђв”Ђв”Ђв”Ђв”Ђв”Ђв”Ђв”Ђв”Ђв”Ђв”Ђв”Ђв”Ђв”Ђв”Ђ*/
; 147  : 			 i2 = 5;

  0005d	c7 05 00 00 00
	00 05 00 00 00	 mov	 DWORD PTR i2, 5

; 148  : 			 j4 = 6;

  00067	c7 05 00 00 00
	00 06 00 00 00	 mov	 DWORD PTR j4, 6

; 149  : 			 i2 = j4;

  00071	8b 05 00 00 00
	00		 mov	 eax, DWORD PTR j4
  00077	89 05 00 00 00
	00		 mov	 DWORD PTR i2, eax

; 150  : 	   /* в”Ђв”Ђв”Ђв”Ђв”Ђв”Ђв”Ђв”Ђв”Ђв”Ђв”Ђв”Ђв”Ђв”Ђв”Ђв”Ђв”Ђв”Ђв”Ђв”Ђв”Ђв”Ђв”Ђв”Ђв”Ђв”Ђв”Ђв”Ђ *
; 151  :             в”‚ Р Р°Р·РјРЅРѕР¶РµРЅРёРµ РєРѕРЅСЃС‚Р°РЅС‚ Рё РєРѕРїРёР№ в”‚
; 152  :             *в”Ђв”Ђв”Ђв”Ђв”Ђв”Ђв”Ђв”Ђв”Ђв”Ђв”Ђв”Ђв”Ђв”Ђв”Ђв”Ђв”Ђв”Ђв”Ђв”Ђв”Ђв”Ђв”Ђв”Ђв”Ђв”Ђв”Ђв”Ђв”Ђв”Ђ*/
; 153  : 
; 154  :             j4 = 2;

  0007d	c7 05 00 00 00
	00 02 00 00 00	 mov	 DWORD PTR j4, 2

; 155  :             if( i2 < j4 && i4 < j4 ){

  00087	8b 05 00 00 00
	00		 mov	 eax, DWORD PTR j4
  0008d	39 05 00 00 00
	00		 cmp	 DWORD PTR i2, eax
  00093	7d 24		 jge	 SHORT $LN17@main
  00095	8b 05 00 00 00
	00		 mov	 eax, DWORD PTR j4
  0009b	39 05 00 00 00
	00		 cmp	 DWORD PTR i4, eax
  000a1	7d 16		 jge	 SHORT $LN17@main

; 156  :                 i2 = 2;

  000a3	c7 05 00 00 00
	00 02 00 00 00	 mov	 DWORD PTR i2, 2

; 157  : 				printf("Hello");

  000ad	48 8d 0d 00 00
	00 00		 lea	 rcx, OFFSET FLAT:??_C@_05COLMCDPH@Hello@
  000b4	e8 00 00 00 00	 call	 printf
$LN17@main:

; 158  : 			}
; 159  : 
; 160  :             j4 = k5;

  000b9	8b 05 00 00 00
	00		 mov	 eax, DWORD PTR k5
  000bf	89 05 00 00 00
	00		 mov	 DWORD PTR j4, eax

; 161  :             if( i2 < j4 && i4 < j4 ){

  000c5	8b 05 00 00 00
	00		 mov	 eax, DWORD PTR j4
  000cb	39 05 00 00 00
	00		 cmp	 DWORD PTR i2, eax
  000d1	7d 24		 jge	 SHORT $LN18@main
  000d3	8b 05 00 00 00
	00		 mov	 eax, DWORD PTR j4
  000d9	39 05 00 00 00
	00		 cmp	 DWORD PTR i4, eax
  000df	7d 16		 jge	 SHORT $LN18@main

; 162  :                 i5 = 3;

  000e1	c7 05 00 00 00
	00 03 00 00 00	 mov	 DWORD PTR i5, 3

; 163  : 				printf("Hello");

  000eb	48 8d 0d 00 00
	00 00		 lea	 rcx, OFFSET FLAT:??_C@_05COLMCDPH@Hello@
  000f2	e8 00 00 00 00	 call	 printf
$LN18@main:

; 164  : 			}
; 165  : 
; 166  :            /* в”Ђв”Ђв”Ђв”Ђв”Ђв”Ђв”Ђв”Ђв”Ђв”Ђв”Ђв”Ђв”Ђв”Ђв”Ђв”Ђв”Ђв”Ђв”Ђв”Ђв”Ђв”Ђв”Ђв”Ђв”Ђв”Ђв”Ђв”Ђв”Ђв”Ђв”Ђв”Ђв”Ђв”Ђв”Ђв”Ђв”Ђв”Ђв”Ђв”Ђв”Ђв”Ђ *
; 167  : 	    в”‚ РЎРІРµСЂС‚РєР° РєРѕРЅСЃС‚Р°РЅС‚, Р°СЂРёС„РјРµС‚РёС‡РµСЃРєРёРµ С‚РѕР¶РґРµСЃС‚РІР° в”‚
; 168  :             в”‚ Рё РёР·Р»РёС€РЅРёРµ РѕРїРµСЂР°С†РёРё Р·Р°РіСЂСѓР·РєРё/СЃРѕС…СЂР°РЅРµРЅРёСЏ    в”‚
; 169  :             * в”Ђв”Ђв”Ђв”Ђв”Ђв”Ђв”Ђв”Ђв”Ђв”Ђв”Ђв”Ђв”Ђв”Ђв”Ђв”Ђв”Ђв”Ђв”Ђв”Ђв”Ђв”Ђв”Ђв”Ђв”Ђв”Ђв”Ђв”Ђв”Ђв”Ђв”Ђв”Ђв”Ђв”Ђв”Ђв”Ђв”Ђв”Ђв”Ђв”Ђв”Ђв”Ђ */
; 170  : 
; 171  :             i3 = 1 + 2;

  000f7	c7 05 00 00 00
	00 03 00 00 00	 mov	 DWORD PTR i3, 3

; 172  :             flt_1 = 2.4 + 6.3;

  00101	f2 0f 10 05 00
	00 00 00	 movsd	 xmm0, QWORD PTR __real@4021666666666666
  00109	f2 0f 11 05 00
	00 00 00	 movsd	 QWORD PTR flt_1, xmm0

; 173  :             i2 = 5;

  00111	c7 05 00 00 00
	00 05 00 00 00	 mov	 DWORD PTR i2, 5

; 174  :             j2 = i + 0;

  0011b	8b 05 00 00 00
	00		 mov	 eax, DWORD PTR i
  00121	89 05 00 00 00
	00		 mov	 DWORD PTR j2, eax

; 175  :             k2 = i / 1;

  00127	8b 05 00 00 00
	00		 mov	 eax, DWORD PTR i
  0012d	89 05 00 00 00
	00		 mov	 DWORD PTR k2, eax

; 176  :             i4 = i * 1;

  00133	8b 05 00 00 00
	00		 mov	 eax, DWORD PTR i
  00139	89 05 00 00 00
	00		 mov	 DWORD PTR i4, eax

; 177  :             i5 = i * 0;

  0013f	6b 05 00 00 00
	00 00		 imul	 eax, DWORD PTR i, 0
  00146	89 05 00 00 00
	00		 mov	 DWORD PTR i5, eax

; 178  : 
; 179  : 
; 180  : 
; 181  :             /* в”Ђв”Ђв”Ђв”Ђв”Ђв”Ђв”Ђв”Ђв”Ђв”Ђв”Ђв”Ђв”Ђв”Ђв”Ђв”Ђв”Ђв”Ђв”Ђв”Ђ *
; 182  :              в”‚  Р›РёС€РЅРµРµ РїСЂРёСЃРІР°РёРІР°РЅРёРµ в”‚
; 183  :              * в”Ђв”Ђв”Ђв”Ђв”Ђв”Ђв”Ђв”Ђв”Ђв”Ђв”Ђв”Ђв”Ђв”Ђв”Ђв”Ђв”Ђв”Ђв”Ђв”Ђ */
; 184  :         
; 185  :             k3 = 1;

  0014c	c7 05 00 00 00
	00 01 00 00 00	 mov	 DWORD PTR k3, 1

; 186  :             /* в”Ђв”Ђв”Ђв”Ђв”Ђв”Ђв”Ђв”Ђв”Ђв”Ђв”Ђв”Ђв”Ђв”Ђв”Ђв”Ђв”Ђв”Ђ *
; 187  :              в”‚  РЎРЅРёР¶РµРЅРёРµ РјРѕС‰РЅРѕСЃС‚Рё в”‚
; 188  :              * в”Ђв”Ђв”Ђв”Ђв”Ђв”Ђв”Ђв”Ђв”Ђв”Ђв”Ђв”Ђв”Ђв”Ђв”Ђв”Ђв”Ђв”Ђ */
; 189  : 
; 190  : 	    k2 = 4 * j5;

  00156	8b 05 00 00 00
	00		 mov	 eax, DWORD PTR j5
  0015c	c1 e0 02	 shl	 eax, 2
  0015f	89 05 00 00 00
	00		 mov	 DWORD PTR k2, eax

; 191  : 	    for( i = 0; i <= 5; i++ )

  00165	c7 05 00 00 00
	00 00 00 00 00	 mov	 DWORD PTR i, 0
  0016f	eb 0e		 jmp	 SHORT $LN7@main
$LN5@main:
  00171	8b 05 00 00 00
	00		 mov	 eax, DWORD PTR i
  00177	ff c0		 inc	 eax
  00179	89 05 00 00 00
	00		 mov	 DWORD PTR i, eax
$LN7@main:
  0017f	83 3d 00 00 00
	00 05		 cmp	 DWORD PTR i, 5
  00186	7f 1c		 jg	 SHORT $LN6@main

; 192  : 		ivector4[ i ] = i * 2;

  00188	8b 05 00 00 00
	00		 mov	 eax, DWORD PTR i
  0018e	03 c0		 add	 eax, eax
  00190	48 63 0d 00 00
	00 00		 movsxd	 rcx, DWORD PTR i
  00197	48 8d 15 00 00
	00 00		 lea	 rdx, OFFSET FLAT:ivector4
  0019e	66 89 04 4a	 mov	 WORD PTR [rdx+rcx*2], ax
  001a2	eb cd		 jmp	 SHORT $LN5@main
$LN6@main:

; 193  : 
; 194  : 	    /* в”Ђв”Ђв”Ђв”Ђв”Ђв”Ђв”Ђв”Ђв”Ђв”Ђв”Ђв”Ђв”Ђ *
; 195  :              в”‚  РџСЂРѕСЃС‚РѕР№ С†РёРєР» в”‚
; 196  :              * в”Ђв”Ђв”Ђв”Ђв”Ђв”Ђв”Ђв”Ђв”Ђв”Ђв”Ђв”Ђв”Ђ */
; 197  : 
; 198  :             j5 = 0;

  001a4	c7 05 00 00 00
	00 00 00 00 00	 mov	 DWORD PTR j5, 0

; 199  :             k5 = 10000;

  001ae	c7 05 00 00 00
	00 10 27 00 00	 mov	 DWORD PTR k5, 10000	; 00002710H
$LN10@main:

; 200  :             do {
; 201  :                 k5 = k5 - 1;

  001b8	8b 05 00 00 00
	00		 mov	 eax, DWORD PTR k5
  001be	ff c8		 dec	 eax
  001c0	89 05 00 00 00
	00		 mov	 DWORD PTR k5, eax

; 202  :                 j5 = j5 + 1;

  001c6	8b 05 00 00 00
	00		 mov	 eax, DWORD PTR j5
  001cc	ff c0		 inc	 eax
  001ce	89 05 00 00 00
	00		 mov	 DWORD PTR j5, eax

; 203  :                 i5 = (k5 * 3) / (j5 * constant5);

  001d4	6b 05 00 00 00
	00 03		 imul	 eax, DWORD PTR k5, 3
  001db	6b 0d 00 00 00
	00 05		 imul	 ecx, DWORD PTR j5, 5
  001e2	99		 cdq
  001e3	f7 f9		 idiv	 ecx
  001e5	89 05 00 00 00
	00		 mov	 DWORD PTR i5, eax

; 204  :                } while ( k5 > 0 );

  001eb	83 3d 00 00 00
	00 00		 cmp	 DWORD PTR k5, 0
  001f2	7f c4		 jg	 SHORT $LN10@main

; 205  : 
; 206  :             /* в”Ђв”Ђв”Ђв”Ђв”Ђв”Ђв”Ђв”Ђв”Ђв”Ђв”Ђв”Ђв”Ђв”Ђв”Ђв”Ђв”Ђв”Ђв”Ђв”Ђв”Ђв”Ђв”Ђв”Ђв”Ђв”Ђв”Ђв”Ђв”Ђв”Ђв”Ђв”Ђв”Ђв”Ђв”Ђв”Ђв”Ђв”Ђ *
; 207  : 	     в”‚  РЈРїСЂР°РІР»РµРЅРёРµ РїРµСЂРµРјРµРЅРЅРѕР№ РёРЅРґСѓРєС†РёРё С†РёРєР»Р°  в”‚
; 208  :              * в”Ђв”Ђв”Ђв”Ђв”Ђв”Ђв”Ђв”Ђв”Ђв”Ђв”Ђв”Ђв”Ђв”Ђв”Ђв”Ђв”Ђв”Ђв”Ђв”Ђв”Ђв”Ђв”Ђв”Ђв”Ђв”Ђв”Ђв”Ђв”Ђв”Ђв”Ђв”Ђв”Ђв”Ђв”Ђв”Ђв”Ђв”Ђ */
; 209  :             for( i = 0; i < 100; i++ )

  001f4	c7 05 00 00 00
	00 00 00 00 00	 mov	 DWORD PTR i, 0
  001fe	eb 0e		 jmp	 SHORT $LN13@main
$LN11@main:
  00200	8b 05 00 00 00
	00		 mov	 eax, DWORD PTR i
  00206	ff c0		 inc	 eax
  00208	89 05 00 00 00
	00		 mov	 DWORD PTR i, eax
$LN13@main:
  0020e	83 3d 00 00 00
	00 64		 cmp	 DWORD PTR i, 100	; 00000064H
  00215	7d 1c		 jge	 SHORT $LN12@main

; 210  :                 ivector5[ i * 2 + 3 ] = 5;

  00217	8b 05 00 00 00
	00		 mov	 eax, DWORD PTR i
  0021d	8d 44 00 03	 lea	 eax, DWORD PTR [rax+rax+3]
  00221	48 98		 cdqe
  00223	48 8d 0d 00 00
	00 00		 lea	 rcx, OFFSET FLAT:ivector5
  0022a	c7 04 81 05 00
	00 00		 mov	 DWORD PTR [rcx+rax*4], 5
  00231	eb cd		 jmp	 SHORT $LN11@main
$LN12@main:

; 211  : 
; 212  :             /* в”Ђв”Ђв”Ђв”Ђв”Ђв”Ђв”Ђв”Ђв”Ђв”Ђв”Ђв”Ђв”Ђв”Ђв”Ђв”Ђв”Ђв”Ђв”Ђв”Ђв”Ђв”Ђв”Ђ *
; 213  :              в”‚  Р“Р»СѓР±РѕРєРёРµ РїРѕРґРІС‹СЂР°Р¶РµРЅРёСЏ  в”‚
; 214  :              * в”Ђв”Ђв”Ђв”Ђв”Ђв”Ђв”Ђв”Ђв”Ђв”Ђв”Ђв”Ђв”Ђв”Ђв”Ђв”Ђв”Ђв”Ђв”Ђв”Ђв”Ђв”Ђв”Ђ */
; 215  : 
; 216  :             if( i < 10 )

  00233	83 3d 00 00 00
	00 0a		 cmp	 DWORD PTR i, 10
  0023a	7d 18		 jge	 SHORT $LN19@main

; 217  :                 j5 = i5 + i2;

  0023c	8b 05 00 00 00
	00		 mov	 eax, DWORD PTR i2
  00242	8b 0d 00 00 00
	00		 mov	 ecx, DWORD PTR i5
  00248	03 c8		 add	 ecx, eax
  0024a	8b c1		 mov	 eax, ecx
  0024c	89 05 00 00 00
	00		 mov	 DWORD PTR j5, eax
  00252	eb 16		 jmp	 SHORT $LN20@main
$LN19@main:

; 218  :             else
; 219  :                 k5 = i5 + i2;

  00254	8b 05 00 00 00
	00		 mov	 eax, DWORD PTR i2
  0025a	8b 0d 00 00 00
	00		 mov	 ecx, DWORD PTR i5
  00260	03 c8		 add	 ecx, eax
  00262	8b c1		 mov	 eax, ecx
  00264	89 05 00 00 00
	00		 mov	 DWORD PTR k5, eax
$LN20@main:

; 220  : 
; 221  :             /* в”Ђв”Ђв”Ђв”Ђв”Ђв”Ђв”Ђв”Ђв”Ђв”Ђв”Ђв”Ђв”Ђв”Ђв”Ђв”Ђв”Ђв”Ђв”Ђв”Ђв”Ђв”Ђв”Ђв”Ђв”Ђв”Ђв”Ђв”Ђв”Ђв”Ђв”Ђв”Ђв”Ђв”Ђв”Ђв”Ђв”Ђв”Ђв”Ђв”Ђв”Ђв”Ђв”Ђв”Ђв”Ђв”Ђв”Ђв”Ђ *
; 222  :              в”‚  РџСЂРѕРІРµСЂРєР° С‚РѕРіРѕ, РєР°Рє РєРѕРјРїРёР»СЏС‚РѕСЂ РіРµРЅРµСЂРёСЂСѓРµС‚ Р°РґСЂРµСЃ  в”‚
; 223  :              в”‚  РїРµСЂРµРјРµРЅРЅРѕР№ СЃ РєРѕРЅСЃС‚Р°РЅС‚РЅС‹Рј РёРЅРґРµРєСЃРѕРј, СЂР°Р·РјРЅРѕР¶Р°РµС‚   в”‚
; 224  :              в”‚  РєРѕРїРёРё Рё СЂРµРіРёСЃС‚СЂС‹                                в”‚
; 225  :              * в”Ђв”Ђв”Ђв”Ђв”Ђв”Ђв”Ђв”Ђв”Ђв”Ђв”Ђв”Ђв”Ђв”Ђв”Ђв”Ђв”Ђв”Ђв”Ђв”Ђв”Ђв”Ђв”Ђв”Ђв”Ђв”Ђв”Ђв”Ђв”Ђв”Ђв”Ђв”Ђв”Ђв”Ђв”Ђв”Ђв”Ђв”Ђв”Ђв”Ђв”Ђв”Ђв”Ђв”Ђв”Ђв”Ђв”Ђв”Ђ */
; 226  : 
; 227  :             ivector[ 0 ] = 1;  /* РіРµРЅРµСЂР°С†РёСЏ РєРѕРЅСЃС‚Р°РЅС‚РЅРѕРіРѕ Р°РґСЂРµСЃР° */

  0026a	b8 04 00 00 00	 mov	 eax, 4
  0026f	48 6b c0 00	 imul	 rax, rax, 0
  00273	48 8d 0d 00 00
	00 00		 lea	 rcx, OFFSET FLAT:ivector
  0027a	c7 04 01 01 00
	00 00		 mov	 DWORD PTR [rcx+rax], 1

; 228  :             ivector[ i2 ] = 2; /* Р·РЅР°С‡РµРЅРёРµ i2 РґРѕР»Р¶РЅРѕ Р±С‹С‚СЊ СЃРєРѕРїРёСЂРѕРІР°РЅРѕ*/

  00281	48 63 05 00 00
	00 00		 movsxd	 rax, DWORD PTR i2
  00288	48 8d 0d 00 00
	00 00		 lea	 rcx, OFFSET FLAT:ivector
  0028f	c7 04 81 02 00
	00 00		 mov	 DWORD PTR [rcx+rax*4], 2

; 229  :             ivector[ i2 ] = 2; /* РєРѕРїРёСЂРѕРІР°РЅРёРµ СЂРµРіРёСЃС‚СЂРѕРІ */

  00296	48 63 05 00 00
	00 00		 movsxd	 rax, DWORD PTR i2
  0029d	48 8d 0d 00 00
	00 00		 lea	 rcx, OFFSET FLAT:ivector
  002a4	c7 04 81 02 00
	00 00		 mov	 DWORD PTR [rcx+rax*4], 2

; 230  :             ivector[ 2 ] = 3;  /* РіРµРЅР°СЂР°С†РёСЏ РєРѕРЅСЃС‚Р°РЅС‚РЅРѕРіРѕ Р°РґСЂРµСЃР° */

  002ab	b8 04 00 00 00	 mov	 eax, 4
  002b0	48 6b c0 02	 imul	 rax, rax, 2
  002b4	48 8d 0d 00 00
	00 00		 lea	 rcx, OFFSET FLAT:ivector
  002bb	c7 04 01 03 00
	00 00		 mov	 DWORD PTR [rcx+rax], 3

; 231  : 
; 232  : 
; 233  : 	    /* в”Ђв”Ђв”Ђв”Ђв”Ђв”Ђв”Ђв”Ђв”Ђв”Ђв”Ђв”Ђв”Ђв”Ђв”Ђв”Ђв”Ђв”Ђв”Ђв”Ђв”Ђв”Ђв”Ђв”Ђв”Ђв”Ђв”Ђв”Ђв”Ђ *
; 234  :              в”‚  РЈРґР°Р»РµРЅРёРµ РѕР±С‰РёС… РїРѕРґРІС‹СЂР°Р¶РµРЅРёР№  в”‚
; 235  :              * в”Ђв”Ђв”Ђв”Ђв”Ђв”Ђв”Ђв”Ђв”Ђв”Ђв”Ђв”Ђв”Ђв”Ђв”Ђв”Ђв”Ђв”Ђв”Ђв”Ђв”Ђв”Ђв”Ђв”Ђв”Ђв”Ђв”Ђв”Ђв”Ђ */
; 236  : 
; 237  :             if(( h3 + k3 ) < 0 || ( h3 + k3 ) > 5 )

  002c2	8b 05 00 00 00
	00		 mov	 eax, DWORD PTR k3
  002c8	8b 0d 00 00 00
	00		 mov	 ecx, DWORD PTR h3
  002ce	03 c8		 add	 ecx, eax
  002d0	8b c1		 mov	 eax, ecx
  002d2	85 c0		 test	 eax, eax
  002d4	7c 15		 jl	 SHORT $LN23@main
  002d6	8b 05 00 00 00
	00		 mov	 eax, DWORD PTR k3
  002dc	8b 0d 00 00 00
	00		 mov	 ecx, DWORD PTR h3
  002e2	03 c8		 add	 ecx, eax
  002e4	8b c1		 mov	 eax, ecx
  002e6	83 f8 05	 cmp	 eax, 5
  002e9	7e 0e		 jle	 SHORT $LN21@main
$LN23@main:

; 238  :                 printf("Common subexpression elimination\n");

  002eb	48 8d 0d 00 00
	00 00		 lea	 rcx, OFFSET FLAT:??_C@_0CC@DDFJGIGO@Common?5subexpression?5eliminatio@
  002f2	e8 00 00 00 00	 call	 printf
  002f7	eb 3d		 jmp	 SHORT $LN22@main
$LN21@main:

; 239  :             else {
; 240  :                 m3 = ( h3 + k3 ) / i3;

  002f9	8b 05 00 00 00
	00		 mov	 eax, DWORD PTR k3
  002ff	8b 0d 00 00 00
	00		 mov	 ecx, DWORD PTR h3
  00305	03 c8		 add	 ecx, eax
  00307	8b c1		 mov	 eax, ecx
  00309	99		 cdq
  0030a	f7 3d 00 00 00
	00		 idiv	 DWORD PTR i3
  00310	89 05 00 00 00
	00		 mov	 DWORD PTR m3, eax

; 241  : 		g3 = i3 + (h3 + k3);

  00316	8b 05 00 00 00
	00		 mov	 eax, DWORD PTR k3
  0031c	8b 0d 00 00 00
	00		 mov	 ecx, DWORD PTR h3
  00322	03 c8		 add	 ecx, eax
  00324	8b c1		 mov	 eax, ecx
  00326	8b 0d 00 00 00
	00		 mov	 ecx, DWORD PTR i3
  0032c	03 c8		 add	 ecx, eax
  0032e	8b c1		 mov	 eax, ecx
  00330	89 05 00 00 00
	00		 mov	 DWORD PTR g3, eax
$LN22@main:

; 242  :             }
; 243  : 
; 244  :             /* в”Ђв”Ђв”Ђв”Ђв”Ђв”Ђв”Ђв”Ђв”Ђв”Ђв”Ђв”Ђв”Ђв”Ђв”Ђв”Ђв”Ђв”Ђв”Ђв”Ђв”Ђв”Ђв”Ђв”Ђв”Ђв”Ђв”Ђв”Ђв”Ђв”Ђв”Ђв”Ђв”Ђв”Ђв”Ђв”Ђв”Ђв”Ђ *
; 245  :              в”‚  Р’С‹РЅРµСЃРµРЅРёРµ РёРЅРІР°СЂРёР°РЅС‚РЅРѕРіРѕ РєРѕРґР°          в”‚
; 246  :              в”‚  (j * k) РјРѕР¶РµС‚ Р±С‹С‚СЊ РІС‹РЅРµСЃРµРЅРѕ РёР· С†РёРєР»Р°  в”‚
; 247  : 	     * в”Ђв”Ђв”Ђв”Ђв”Ђв”Ђв”Ђв”Ђв”Ђв”Ђв”Ђв”Ђв”Ђв”Ђв”Ђв”Ђв”Ђв”Ђв”Ђв”Ђв”Ђв”Ђв”Ђв”Ђв”Ђв”Ђв”Ђв”Ђв”Ђв”Ђв”Ђв”Ђв”Ђв”Ђв”Ђв”Ђв”Ђв”Ђ */
; 248  : 
; 249  :             for( i4 = 0; i4 <= max_vector; i4++){

  00336	c7 05 00 00 00
	00 00 00 00 00	 mov	 DWORD PTR i4, 0
  00340	eb 0e		 jmp	 SHORT $LN16@main
$LN14@main:
  00342	8b 05 00 00 00
	00		 mov	 eax, DWORD PTR i4
  00348	ff c0		 inc	 eax
  0034a	89 05 00 00 00
	00		 mov	 DWORD PTR i4, eax
$LN16@main:
  00350	83 3d 00 00 00
	00 02		 cmp	 DWORD PTR i4, 2
  00357	7f 2c		 jg	 SHORT $LN15@main

; 250  : 				printf("Hello");

  00359	48 8d 0d 00 00
	00 00		 lea	 rcx, OFFSET FLAT:??_C@_05COLMCDPH@Hello@
  00360	e8 00 00 00 00	 call	 printf

; 251  :                 ivector2[ i4 ] = j * k;

  00365	8b 05 00 00 00
	00		 mov	 eax, DWORD PTR j
  0036b	0f af 05 00 00
	00 00		 imul	 eax, DWORD PTR k
  00372	48 63 0d 00 00
	00 00		 movsxd	 rcx, DWORD PTR i4
  00379	48 8d 15 00 00
	00 00		 lea	 rdx, OFFSET FLAT:ivector2
  00380	88 04 0a	 mov	 BYTE PTR [rdx+rcx], al

; 252  : 			}

  00383	eb bd		 jmp	 SHORT $LN14@main
$LN15@main:

; 253  : 
; 254  : 	    /* в”Ђв”Ђв”Ђв”Ђв”Ђв”Ђв”Ђв”Ђв”Ђв”Ђв”Ђв”Ђв”Ђв”Ђв”Ђв”Ђв”Ђв”Ђв”Ђв”Ђв”Ђв”Ђв”Ђв”Ђв”Ђв”Ђв”Ђв”Ђв”Ђ *
; 255  : 	     в”‚  Р’С‹Р·РѕРІ С„СѓРЅРєС†РёРё СЃ Р°СЂРіСѓРјРµРЅС‚Р°РјРё  в”‚
; 256  : 	     * в”Ђв”Ђв”Ђв”Ђв”Ђв”Ђв”Ђв”Ђв”Ђв”Ђв”Ђв”Ђв”Ђв”Ђв”Ђв”Ђв”Ђв”Ђв”Ђв”Ђв”Ђв”Ђв”Ђв”Ђв”Ђв”Ђв”Ђв”Ђв”Ђ */
; 257  : 
; 258  : 	    dead_code( 1, "This line should not be printed" );

  00385	48 8d 15 00 00
	00 00		 lea	 rdx, OFFSET FLAT:??_C@_0CA@EAKPGJJD@This?5line?5should?5not?5be?5printed@
  0038c	b9 01 00 00 00	 mov	 ecx, 1
  00391	e8 00 00 00 00	 call	 dead_code

; 259  : 
; 260  : 	    /* в”Ђв”Ђв”Ђв”Ђв”Ђв”Ђв”Ђв”Ђв”Ђв”Ђв”Ђв”Ђв”Ђв”Ђв”Ђв”Ђв”Ђв”Ђв”Ђв”Ђв”Ђв”Ђв”Ђв”Ђв”Ђв”Ђв”Ђв”Ђв”Ђв”Ђ *
; 261  :              в”‚  Р’С‹Р·РѕРІ С„СѓРЅРєС†РёРё Р±РµР· Р°СЂРіСѓРјРµРЅС‚РѕРІ  в”‚
; 262  :              * в”Ђв”Ђв”Ђв”Ђв”Ђв”Ђв”Ђв”Ђв”Ђв”Ђв”Ђв”Ђв”Ђв”Ђв”Ђв”Ђв”Ђв”Ђв”Ђв”Ђв”Ђв”Ђв”Ђв”Ђв”Ђв”Ђв”Ђв”Ђв”Ђв”Ђ */
; 263  : 
; 264  :             unnecessary_loop();

  00396	e8 00 00 00 00	 call	 unnecessary_loop

; 265  : 
; 266  : 	//------------------------------------------------------
; 267  : 	loop_jamming(7);

  0039b	b9 07 00 00 00	 mov	 ecx, 7
  003a0	e8 00 00 00 00	 call	 loop_jamming

; 268  : 	loop_unrolling(7);

  003a5	b9 07 00 00 00	 mov	 ecx, 7
  003aa	e8 00 00 00 00	 call	 loop_unrolling

; 269  : 	jump_compression(1, 2, 3, 4, 5);

  003af	c7 44 24 20 05
	00 00 00	 mov	 DWORD PTR [rsp+32], 5
  003b7	41 b9 04 00 00
	00		 mov	 r9d, 4
  003bd	41 b8 03 00 00
	00		 mov	 r8d, 3
  003c3	ba 02 00 00 00	 mov	 edx, 2
  003c8	b9 01 00 00 00	 mov	 ecx, 1
  003cd	e8 00 00 00 00	 call	 jump_compression

; 270  : 
; 271  :          }    /* РљРѕРЅРµС† С„СѓРЅРєС†РёРё main */

  003d2	33 c0		 xor	 eax, eax
  003d4	48 8d a5 c8 00
	00 00		 lea	 rsp, QWORD PTR [rbp+200]
  003db	5f		 pop	 rdi
  003dc	5d		 pop	 rbp
  003dd	c3		 ret	 0
main	ENDP
_TEXT	ENDS
; Function compile flags: /Odtp /RTCsu /ZI
; File C:\Users\Карина\Downloads\OPTBENCH (1).c
;	COMDAT jump_compression
_TEXT	SEGMENT
i$ = 224
j$ = 232
k$ = 240
l$ = 248
m$ = 256
jump_compression PROC					; COMDAT

; 114  :        {

$LN11:
  00000	44 89 4c 24 20	 mov	 DWORD PTR [rsp+32], r9d
  00005	44 89 44 24 18	 mov	 DWORD PTR [rsp+24], r8d
  0000a	89 54 24 10	 mov	 DWORD PTR [rsp+16], edx
  0000e	89 4c 24 08	 mov	 DWORD PTR [rsp+8], ecx
  00012	55		 push	 rbp
  00013	57		 push	 rdi
  00014	48 81 ec e8 00
	00 00		 sub	 rsp, 232		; 000000e8H
  0001b	48 8d 6c 24 20	 lea	 rbp, QWORD PTR [rsp+32]
  00020	48 8d 0d 00 00
	00 00		 lea	 rcx, OFFSET FLAT:__C1096819_OPTBENCH (1)@c
  00027	e8 00 00 00 00	 call	 __CheckForDebuggerJustMyCode
$beg_1$12:

; 115  :        beg_1:
; 116  :            if (i < j)

  0002c	8b 85 e8 00 00
	00		 mov	 eax, DWORD PTR j$[rbp]
  00032	39 85 e0 00 00
	00		 cmp	 DWORD PTR i$[rbp], eax
  00038	7d 7b		 jge	 SHORT $LN2@jump_compr

; 117  :                if (j < k)

  0003a	8b 85 f0 00 00
	00		 mov	 eax, DWORD PTR k$[rbp]
  00040	39 85 e8 00 00
	00		 cmp	 DWORD PTR j$[rbp], eax
  00046	7d 50		 jge	 SHORT $LN4@jump_compr

; 118  :                    if (k < l)

  00048	8b 85 f8 00 00
	00		 mov	 eax, DWORD PTR l$[rbp]
  0004e	39 85 f0 00 00
	00		 cmp	 DWORD PTR k$[rbp], eax
  00054	7d 2a		 jge	 SHORT $LN6@jump_compr

; 119  :                        if (l < m)

  00056	8b 85 00 01 00
	00		 mov	 eax, DWORD PTR m$[rbp]
  0005c	39 85 f8 00 00
	00		 cmp	 DWORD PTR l$[rbp], eax
  00062	7d 18		 jge	 SHORT $LN8@jump_compr

; 120  :                            l += m;

  00064	8b 85 00 01 00
	00		 mov	 eax, DWORD PTR m$[rbp]
  0006a	8b 8d f8 00 00
	00		 mov	 ecx, DWORD PTR l$[rbp]
  00070	03 c8		 add	 ecx, eax
  00072	8b c1		 mov	 eax, ecx
  00074	89 85 f8 00 00
	00		 mov	 DWORD PTR l$[rbp], eax
  0007a	eb 02		 jmp	 SHORT $LN9@jump_compr
$LN8@jump_compr:

; 121  :                        else
; 122  :                            goto end_1;

  0007c	eb 30		 jmp	 SHORT $end_1$13
$LN9@jump_compr:
  0007e	eb 16		 jmp	 SHORT $LN7@jump_compr
$LN6@jump_compr:

; 123  :                    else
; 124  :                        k += l;

  00080	8b 85 f8 00 00
	00		 mov	 eax, DWORD PTR l$[rbp]
  00086	8b 8d f0 00 00
	00		 mov	 ecx, DWORD PTR k$[rbp]
  0008c	03 c8		 add	 ecx, eax
  0008e	8b c1		 mov	 eax, ecx
  00090	89 85 f0 00 00
	00		 mov	 DWORD PTR k$[rbp], eax
$LN7@jump_compr:
  00096	eb 1b		 jmp	 SHORT $LN5@jump_compr
$LN4@jump_compr:

; 125  :                else {
; 126  :                    j += k;

  00098	8b 85 f0 00 00
	00		 mov	 eax, DWORD PTR k$[rbp]
  0009e	8b 8d e8 00 00
	00		 mov	 ecx, DWORD PTR j$[rbp]
  000a4	03 c8		 add	 ecx, eax
  000a6	8b c1		 mov	 eax, ecx
  000a8	89 85 e8 00 00
	00		 mov	 DWORD PTR j$[rbp], eax
$end_1$13:

; 127  :                end_1:
; 128  :                    goto beg_1;

  000ae	e9 79 ff ff ff	 jmp	 $beg_1$12
$LN5@jump_compr:

; 129  :                }

  000b3	eb 16		 jmp	 SHORT $LN3@jump_compr
$LN2@jump_compr:

; 130  :            else
; 131  :                i += j;

  000b5	8b 85 e8 00 00
	00		 mov	 eax, DWORD PTR j$[rbp]
  000bb	8b 8d e0 00 00
	00		 mov	 ecx, DWORD PTR i$[rbp]
  000c1	03 c8		 add	 ecx, eax
  000c3	8b c1		 mov	 eax, ecx
  000c5	89 85 e0 00 00
	00		 mov	 DWORD PTR i$[rbp], eax
$LN3@jump_compr:

; 132  :            return(i + j + k + l + m);

  000cb	8b 85 e8 00 00
	00		 mov	 eax, DWORD PTR j$[rbp]
  000d1	8b 8d e0 00 00
	00		 mov	 ecx, DWORD PTR i$[rbp]
  000d7	03 c8		 add	 ecx, eax
  000d9	8b c1		 mov	 eax, ecx
  000db	03 85 f0 00 00
	00		 add	 eax, DWORD PTR k$[rbp]
  000e1	03 85 f8 00 00
	00		 add	 eax, DWORD PTR l$[rbp]
  000e7	03 85 00 01 00
	00		 add	 eax, DWORD PTR m$[rbp]

; 133  :        } /* РљРѕРЅРµС† jump_compression */

  000ed	48 8d a5 c8 00
	00 00		 lea	 rsp, QWORD PTR [rbp+200]
  000f4	5f		 pop	 rdi
  000f5	5d		 pop	 rbp
  000f6	c3		 ret	 0
jump_compression ENDP
_TEXT	ENDS
; Function compile flags: /Odtp /RTCsu /ZI
; File C:\Users\Карина\Downloads\OPTBENCH (1).c
;	COMDAT loop_unrolling
_TEXT	SEGMENT
$T1 = 200
x$ = 256
loop_unrolling PROC					; COMDAT

; 100  :        {

$LN8:
  00000	89 4c 24 08	 mov	 DWORD PTR [rsp+8], ecx
  00004	55		 push	 rbp
  00005	57		 push	 rdi
  00006	48 81 ec 08 01
	00 00		 sub	 rsp, 264		; 00000108H
  0000d	48 8d 6c 24 20	 lea	 rbp, QWORD PTR [rsp+32]
  00012	48 8d 0d 00 00
	00 00		 lea	 rcx, OFFSET FLAT:__C1096819_OPTBENCH (1)@c
  00019	e8 00 00 00 00	 call	 __CheckForDebuggerJustMyCode

; 101  :            for (i = 0; i < 6; i++)

  0001e	c7 05 00 00 00
	00 00 00 00 00	 mov	 DWORD PTR i, 0
  00028	eb 0e		 jmp	 SHORT $LN4@loop_unrol
$LN2@loop_unrol:
  0002a	8b 05 00 00 00
	00		 mov	 eax, DWORD PTR i
  00030	ff c0		 inc	 eax
  00032	89 05 00 00 00
	00		 mov	 DWORD PTR i, eax
$LN4@loop_unrol:
  00038	83 3d 00 00 00
	00 06		 cmp	 DWORD PTR i, 6
  0003f	7d 38		 jge	 SHORT $LN3@loop_unrol

; 102  :                ivector4[i] = 0;

  00041	48 63 05 00 00
	00 00		 movsxd	 rax, DWORD PTR i
  00048	48 d1 e0	 shl	 rax, 1
  0004b	48 89 85 c8 00
	00 00		 mov	 QWORD PTR $T1[rbp], rax
  00052	48 83 bd c8 00
	00 00 0c	 cmp	 QWORD PTR $T1[rbp], 12
  0005a	73 02		 jae	 SHORT $LN6@loop_unrol
  0005c	eb 05		 jmp	 SHORT $LN7@loop_unrol
$LN6@loop_unrol:
  0005e	e8 00 00 00 00	 call	 __report_rangecheckfailure
$LN7@loop_unrol:
  00063	48 8d 05 00 00
	00 00		 lea	 rax, OFFSET FLAT:ivector4
  0006a	33 c9		 xor	 ecx, ecx
  0006c	48 8b 95 c8 00
	00 00		 mov	 rdx, QWORD PTR $T1[rbp]
  00073	66 89 0c 10	 mov	 WORD PTR [rax+rdx], cx
  00077	eb b1		 jmp	 SHORT $LN2@loop_unrol
$LN3@loop_unrol:
$LN5@loop_unrol:

; 103  :        } /* РљРѕРЅРµС† loop_unrolling */

  00079	48 8d a5 e8 00
	00 00		 lea	 rsp, QWORD PTR [rbp+232]
  00080	5f		 pop	 rdi
  00081	5d		 pop	 rbp
  00082	c3		 ret	 0
loop_unrolling ENDP
_TEXT	ENDS
; Function compile flags: /Odtp /RTCsu /ZI
; File C:\Users\Карина\Downloads\OPTBENCH (1).c
;	COMDAT loop_jamming
_TEXT	SEGMENT
x$ = 224
loop_jamming PROC					; COMDAT

; 82   :        {

$LN9:
  00000	89 4c 24 08	 mov	 DWORD PTR [rsp+8], ecx
  00004	55		 push	 rbp
  00005	57		 push	 rdi
  00006	48 81 ec e8 00
	00 00		 sub	 rsp, 232		; 000000e8H
  0000d	48 8d 6c 24 20	 lea	 rbp, QWORD PTR [rsp+32]
  00012	48 8d 0d 00 00
	00 00		 lea	 rcx, OFFSET FLAT:__C1096819_OPTBENCH (1)@c
  00019	e8 00 00 00 00	 call	 __CheckForDebuggerJustMyCode

; 83   :            for (i = 0; i < 5; i++)

  0001e	c7 05 00 00 00
	00 00 00 00 00	 mov	 DWORD PTR i, 0
  00028	eb 0e		 jmp	 SHORT $LN4@loop_jammi
$LN2@loop_jammi:
  0002a	8b 05 00 00 00
	00		 mov	 eax, DWORD PTR i
  00030	ff c0		 inc	 eax
  00032	89 05 00 00 00
	00		 mov	 DWORD PTR i, eax
$LN4@loop_jammi:
  00038	83 3d 00 00 00
	00 05		 cmp	 DWORD PTR i, 5
  0003f	7d 1f		 jge	 SHORT $LN3@loop_jammi

; 84   :                k5 = x + j5 * i;

  00041	8b 05 00 00 00
	00		 mov	 eax, DWORD PTR j5
  00047	0f af 05 00 00
	00 00		 imul	 eax, DWORD PTR i
  0004e	8b 8d e0 00 00
	00		 mov	 ecx, DWORD PTR x$[rbp]
  00054	03 c8		 add	 ecx, eax
  00056	8b c1		 mov	 eax, ecx
  00058	89 05 00 00 00
	00		 mov	 DWORD PTR k5, eax
  0005e	eb ca		 jmp	 SHORT $LN2@loop_jammi
$LN3@loop_jammi:

; 85   :            for (i = 0; i < 5; i++)

  00060	c7 05 00 00 00
	00 00 00 00 00	 mov	 DWORD PTR i, 0
  0006a	eb 0e		 jmp	 SHORT $LN7@loop_jammi
$LN5@loop_jammi:
  0006c	8b 05 00 00 00
	00		 mov	 eax, DWORD PTR i
  00072	ff c0		 inc	 eax
  00074	89 05 00 00 00
	00		 mov	 DWORD PTR i, eax
$LN7@loop_jammi:
  0007a	83 3d 00 00 00
	00 05		 cmp	 DWORD PTR i, 5
  00081	7d 1c		 jge	 SHORT $LN6@loop_jammi

; 86   :                i5 = x * k5 * i;

  00083	8b 85 e0 00 00
	00		 mov	 eax, DWORD PTR x$[rbp]
  00089	0f af 05 00 00
	00 00		 imul	 eax, DWORD PTR k5
  00090	0f af 05 00 00
	00 00		 imul	 eax, DWORD PTR i
  00097	89 05 00 00 00
	00		 mov	 DWORD PTR i5, eax
  0009d	eb cd		 jmp	 SHORT $LN5@loop_jammi
$LN6@loop_jammi:

; 87   :        } /* РљРѕРЅРµС† loop_jamming */

  0009f	48 8d a5 c8 00
	00 00		 lea	 rsp, QWORD PTR [rbp+200]
  000a6	5f		 pop	 rdi
  000a7	5d		 pop	 rbp
  000a8	c3		 ret	 0
loop_jamming ENDP
_TEXT	ENDS
; Function compile flags: /Odtp /RTCsu /ZI
; File C:\Users\Карина\Downloads\OPTBENCH (1).c
;	COMDAT unnecessary_loop
_TEXT	SEGMENT
x$ = 4
unnecessary_loop PROC					; COMDAT

; 64   :        {

$LN6:
  00000	40 55		 push	 rbp
  00002	57		 push	 rdi
  00003	48 81 ec 08 01
	00 00		 sub	 rsp, 264		; 00000108H
  0000a	48 8d 6c 24 20	 lea	 rbp, QWORD PTR [rsp+32]
  0000f	48 8d 0d 00 00
	00 00		 lea	 rcx, OFFSET FLAT:__C1096819_OPTBENCH (1)@c
  00016	e8 00 00 00 00	 call	 __CheckForDebuggerJustMyCode

; 65   :            int x;
; 66   : 
; 67   :            x = 0;

  0001b	c7 45 04 00 00
	00 00		 mov	 DWORD PTR x$[rbp], 0

; 68   :            for (i = 0; i < 5; i++)  /* Р¦РёРєР» РЅРµ РґРѕР»Р¶РµРЅ

  00022	c7 05 00 00 00
	00 00 00 00 00	 mov	 DWORD PTR i, 0
  0002c	eb 0e		 jmp	 SHORT $LN4@unnecessar
$LN2@unnecessar:
  0002e	8b 05 00 00 00
	00		 mov	 eax, DWORD PTR i
  00034	ff c0		 inc	 eax
  00036	89 05 00 00 00
	00		 mov	 DWORD PTR i, eax
$LN4@unnecessar:
  0003c	83 3d 00 00 00
	00 05		 cmp	 DWORD PTR i, 5
  00043	7d 15		 jge	 SHORT $LN3@unnecessar

; 69   :                                           РіРµРЅРµСЂРёСЂРѕРІР°С‚СЊСЃСЏ*/
; 70   :                k5 = x + j5;

  00045	8b 05 00 00 00
	00		 mov	 eax, DWORD PTR j5
  0004b	8b 4d 04	 mov	 ecx, DWORD PTR x$[rbp]
  0004e	03 c8		 add	 ecx, eax
  00050	8b c1		 mov	 eax, ecx
  00052	89 05 00 00 00
	00		 mov	 DWORD PTR k5, eax
  00058	eb d4		 jmp	 SHORT $LN2@unnecessar
$LN3@unnecessar:

; 71   :        } /* РљРѕРЅРµС† unnecessary_loop */

  0005a	48 8d a5 e8 00
	00 00		 lea	 rsp, QWORD PTR [rbp+232]
  00061	5f		 pop	 rdi
  00062	5d		 pop	 rbp
  00063	c3		 ret	 0
unnecessary_loop ENDP
_TEXT	ENDS
; Function compile flags: /Odtp /RTCsu /ZI
; File C:\Users\Карина\Downloads\OPTBENCH (1).c
;	COMDAT dead_code
_TEXT	SEGMENT
idead_store$ = 4
a$ = 256
b$ = 264
dead_code PROC						; COMDAT

; 47   :        {

$LN4:
  00000	48 89 54 24 10	 mov	 QWORD PTR [rsp+16], rdx
  00005	89 4c 24 08	 mov	 DWORD PTR [rsp+8], ecx
  00009	55		 push	 rbp
  0000a	57		 push	 rdi
  0000b	48 81 ec 08 01
	00 00		 sub	 rsp, 264		; 00000108H
  00012	48 8d 6c 24 20	 lea	 rbp, QWORD PTR [rsp+32]
  00017	48 8d 0d 00 00
	00 00		 lea	 rcx, OFFSET FLAT:__C1096819_OPTBENCH (1)@c
  0001e	e8 00 00 00 00	 call	 __CheckForDebuggerJustMyCode

; 48   :            int idead_store;
; 49   : 
; 50   :            idead_store = a;

  00023	8b 85 00 01 00
	00		 mov	 eax, DWORD PTR a$[rbp]
  00029	89 45 04	 mov	 DWORD PTR idead_store$[rbp], eax

; 51   :            if (0)

  0002c	33 c0		 xor	 eax, eax
  0002e	85 c0		 test	 eax, eax
  00030	74 13		 je	 SHORT $LN2@dead_code

; 52   :                printf("%s\n", b);

  00032	48 8b 95 08 01
	00 00		 mov	 rdx, QWORD PTR b$[rbp]
  00039	48 8d 0d 00 00
	00 00		 lea	 rcx, OFFSET FLAT:??_C@_03OFAPEBGM@?$CFs?6@
  00040	e8 00 00 00 00	 call	 printf
$LN2@dead_code:

; 53   :             } /* РљРѕРЅРµС† dead_code */

  00045	48 8d a5 e8 00
	00 00		 lea	 rsp, QWORD PTR [rbp+232]
  0004c	5f		 pop	 rdi
  0004d	5d		 pop	 rbp
  0004e	c3		 ret	 0
dead_code ENDP
_TEXT	ENDS
; Function compile flags: /Odtp /RTCsu /ZI
; File C:\Program Files (x86)\Windows Kits\10\Include\10.0.19041.0\ucrt\stdio.h
;	COMDAT printf
_TEXT	SEGMENT
_Result$ = 4
_ArgList$ = 40
__$ArrayPad$ = 248
_Format$ = 288
printf	PROC						; COMDAT

; 956  :     {

$LN3:
  00000	48 89 4c 24 08	 mov	 QWORD PTR [rsp+8], rcx
  00005	48 89 54 24 10	 mov	 QWORD PTR [rsp+16], rdx
  0000a	4c 89 44 24 18	 mov	 QWORD PTR [rsp+24], r8
  0000f	4c 89 4c 24 20	 mov	 QWORD PTR [rsp+32], r9
  00014	55		 push	 rbp
  00015	57		 push	 rdi
  00016	48 81 ec 28 01
	00 00		 sub	 rsp, 296		; 00000128H
  0001d	48 8d 6c 24 20	 lea	 rbp, QWORD PTR [rsp+32]
  00022	48 8d 7c 24 20	 lea	 rdi, QWORD PTR [rsp+32]
  00027	b9 12 00 00 00	 mov	 ecx, 18
  0002c	b8 cc cc cc cc	 mov	 eax, -858993460		; ccccccccH
  00031	f3 ab		 rep stosd
  00033	48 8b 8c 24 48
	01 00 00	 mov	 rcx, QWORD PTR [rsp+328]
  0003b	48 8b 05 00 00
	00 00		 mov	 rax, QWORD PTR __security_cookie
  00042	48 33 c5	 xor	 rax, rbp
  00045	48 89 85 f8 00
	00 00		 mov	 QWORD PTR __$ArrayPad$[rbp], rax
  0004c	48 8d 0d 00 00
	00 00		 lea	 rcx, OFFSET FLAT:__6DFAE8B8_stdio@h
  00053	e8 00 00 00 00	 call	 __CheckForDebuggerJustMyCode

; 957  :         int _Result;
; 958  :         va_list _ArgList;
; 959  :         __crt_va_start(_ArgList, _Format);

  00058	48 8d 85 28 01
	00 00		 lea	 rax, QWORD PTR _Format$[rbp+8]
  0005f	48 89 45 28	 mov	 QWORD PTR _ArgList$[rbp], rax

; 960  :         _Result = _vfprintf_l(stdout, _Format, NULL, _ArgList);

  00063	b9 01 00 00 00	 mov	 ecx, 1
  00068	ff 15 00 00 00
	00		 call	 QWORD PTR __imp___acrt_iob_func
  0006e	4c 8b 4d 28	 mov	 r9, QWORD PTR _ArgList$[rbp]
  00072	45 33 c0	 xor	 r8d, r8d
  00075	48 8b 95 20 01
	00 00		 mov	 rdx, QWORD PTR _Format$[rbp]
  0007c	48 8b c8	 mov	 rcx, rax
  0007f	e8 00 00 00 00	 call	 _vfprintf_l
  00084	89 45 04	 mov	 DWORD PTR _Result$[rbp], eax

; 961  :         __crt_va_end(_ArgList);

  00087	48 c7 45 28 00
	00 00 00	 mov	 QWORD PTR _ArgList$[rbp], 0

; 962  :         return _Result;

  0008f	8b 45 04	 mov	 eax, DWORD PTR _Result$[rbp]

; 963  :     }

  00092	8b f8		 mov	 edi, eax
  00094	48 8d 4d e0	 lea	 rcx, QWORD PTR [rbp-32]
  00098	48 8d 15 00 00
	00 00		 lea	 rdx, OFFSET FLAT:printf$rtcFrameData
  0009f	e8 00 00 00 00	 call	 _RTC_CheckStackVars
  000a4	8b c7		 mov	 eax, edi
  000a6	48 8b 8d f8 00
	00 00		 mov	 rcx, QWORD PTR __$ArrayPad$[rbp]
  000ad	48 33 cd	 xor	 rcx, rbp
  000b0	e8 00 00 00 00	 call	 __security_check_cookie
  000b5	48 8d a5 08 01
	00 00		 lea	 rsp, QWORD PTR [rbp+264]
  000bc	5f		 pop	 rdi
  000bd	5d		 pop	 rbp
  000be	c3		 ret	 0
printf	ENDP
_TEXT	ENDS
; Function compile flags: /Odtp /RTCsu /ZI
; File C:\Program Files (x86)\Windows Kits\10\Include\10.0.19041.0\ucrt\stdio.h
;	COMDAT _vfprintf_l
_TEXT	SEGMENT
_Stream$ = 224
_Format$ = 232
_Locale$ = 240
_ArgList$ = 248
_vfprintf_l PROC					; COMDAT

; 644  :     {

$LN3:
  00000	4c 89 4c 24 20	 mov	 QWORD PTR [rsp+32], r9
  00005	4c 89 44 24 18	 mov	 QWORD PTR [rsp+24], r8
  0000a	48 89 54 24 10	 mov	 QWORD PTR [rsp+16], rdx
  0000f	48 89 4c 24 08	 mov	 QWORD PTR [rsp+8], rcx
  00014	55		 push	 rbp
  00015	57		 push	 rdi
  00016	48 81 ec f8 00
	00 00		 sub	 rsp, 248		; 000000f8H
  0001d	48 8d 6c 24 30	 lea	 rbp, QWORD PTR [rsp+48]
  00022	48 8d 0d 00 00
	00 00		 lea	 rcx, OFFSET FLAT:__6DFAE8B8_stdio@h
  00029	e8 00 00 00 00	 call	 __CheckForDebuggerJustMyCode

; 645  :         return __stdio_common_vfprintf(_CRT_INTERNAL_LOCAL_PRINTF_OPTIONS, _Stream, _Format, _Locale, _ArgList);

  0002e	e8 00 00 00 00	 call	 __local_stdio_printf_options
  00033	48 8b 8d f8 00
	00 00		 mov	 rcx, QWORD PTR _ArgList$[rbp]
  0003a	48 89 4c 24 20	 mov	 QWORD PTR [rsp+32], rcx
  0003f	4c 8b 8d f0 00
	00 00		 mov	 r9, QWORD PTR _Locale$[rbp]
  00046	4c 8b 85 e8 00
	00 00		 mov	 r8, QWORD PTR _Format$[rbp]
  0004d	48 8b 95 e0 00
	00 00		 mov	 rdx, QWORD PTR _Stream$[rbp]
  00054	48 8b 08	 mov	 rcx, QWORD PTR [rax]
  00057	ff 15 00 00 00
	00		 call	 QWORD PTR __imp___stdio_common_vfprintf

; 646  :     }

  0005d	48 8d a5 c8 00
	00 00		 lea	 rsp, QWORD PTR [rbp+200]
  00064	5f		 pop	 rdi
  00065	5d		 pop	 rbp
  00066	c3		 ret	 0
_vfprintf_l ENDP
_TEXT	ENDS
; Function compile flags: /Odtp /RTCsu /ZI
; File C:\Program Files (x86)\Windows Kits\10\Include\10.0.19041.0\ucrt\corecrt_stdio_config.h
;	COMDAT __local_stdio_printf_options
_TEXT	SEGMENT
__local_stdio_printf_options PROC			; COMDAT

; 90   :     {

$LN3:
  00000	40 55		 push	 rbp
  00002	57		 push	 rdi
  00003	48 81 ec e8 00
	00 00		 sub	 rsp, 232		; 000000e8H
  0000a	48 8d 6c 24 20	 lea	 rbp, QWORD PTR [rsp+32]
  0000f	48 8d 0d 00 00
	00 00		 lea	 rcx, OFFSET FLAT:__A2143F22_corecrt_stdio_config@h
  00016	e8 00 00 00 00	 call	 __CheckForDebuggerJustMyCode

; 91   :         static unsigned __int64 _OptionsStorage;
; 92   :         return &_OptionsStorage;

  0001b	48 8d 05 00 00
	00 00		 lea	 rax, OFFSET FLAT:?_OptionsStorage@?1??__local_stdio_printf_options@@9@9 ; `__local_stdio_printf_options'::`2'::_OptionsStorage

; 93   :     }

  00022	48 8d a5 c8 00
	00 00		 lea	 rsp, QWORD PTR [rbp+200]
  00029	5f		 pop	 rdi
  0002a	5d		 pop	 rbp
  0002b	c3		 ret	 0
__local_stdio_printf_options ENDP
_TEXT	ENDS
END
